BL51 BANKED LINKER/LOCATER V6.22.4.0                                                    01/10/2026  10:26:27  PAGE 1


BL51 BANKED LINKER/LOCATER V6.22.4.0, INVOKED BY:
C:\KEIL_V5\C51\BIN\BL51.EXE .\Objects\Init_Device.obj, .\Objects\main.obj, .\Objects\KeyInput.obj, .\Objects\LCD1602.obj
>> , .\Objects\LED6.obj, .\Objects\singer.obj, .\Objects\buzzer.obj, .\Objects\Delay.obj, .\Objects\Keyboard.obj, .\Obje
>> cts\timer0.obj, .\Objects\timer1.obj, .\Objects\timer2.obj, .\Objects\configurationTask.obj, .\Objects\inputTask.obj,
>>  .\Objects\runningTask.obj TO .\Objects\C8051F020 PRINT (.\Listings\C8051F020.m51) RAMSIZE (256)


INPUT MODULES INCLUDED:
  .\Objects\Init_Device.obj (INIT_DEVICE)
  .\Objects\main.obj (MAIN)
  .\Objects\KeyInput.obj (KEYINPUT)
  .\Objects\LCD1602.obj (LCD1602)
  .\Objects\LED6.obj (LED6)
  .\Objects\singer.obj (SINGER)
  .\Objects\buzzer.obj (BUZZER)
  .\Objects\Delay.obj (DELAY)
  .\Objects\Keyboard.obj (KEYBOARD)
  .\Objects\timer0.obj (TIMER0)
  .\Objects\timer1.obj (TIMER1)
  .\Objects\timer2.obj (TIMER2)
  .\Objects\configurationTask.obj (CONFIGURATIONTASK)
  .\Objects\inputTask.obj (INPUTTASK)
  .\Objects\runningTask.obj (RUNNINGTASK)


LINK MAP OF MODULE:  .\Objects\C8051F020 (INIT_DEVICE)


            TYPE    BASE      LENGTH    RELOCATION   SEGMENT NAME
            -----------------------------------------------------

            * * * * * * *   D A T A   M E M O R Y   * * * * * * *
            REG     0000H     0008H     ABSOLUTE     "REG BANK 0"

            * * * * * * *   C O D E   M E M O R Y   * * * * * * *
            CODE    0000H     02AAH     ABSOLUTE     
            CODE    02AAH     0712H     UNIT         RUNNING
            CODE    09BCH     03D7H     UNIT         CONFIGURATION
            CODE    0D93H     0191H     UNIT         SINGER_SEGMENT
            CODE    0F24H     0117H     UNIT         LED6
            CODE    103BH     010AH     UNIT         KBD
            CODE    1145H     00FDH     UNIT         INPUT
            CODE    1242H     00D1H     UNIT         TMR0
            CODE    1313H     0096H     UNIT         LCD1602
            CODE    13A9H     005AH     UNIT         KBI
            CODE    1403H     0035H     UNIT         TMR1
            CODE    1438H     0032H     UNIT         INIT
            CODE    146AH     0027H     UNIT         TIMER2_SEGMENT
            CODE    1491H     0013H     UNIT         DELAY
            CODE    14A4H     0010H     UNIT         BUZZER_SEGMENT



SYMBOL TABLE OF MODULE:  .\Objects\C8051F020 (INIT_DEVICE)

  VALUE           TYPE          NAME
  ----------------------------------

BL51 BANKED LINKER/LOCATER V6.22.4.0                                                  01/10/2026  10:26:27  PAGE 2


  -------         MODULE        INIT_DEVICE
  C:1438H         SEGMENT       INIT
  C:145DH         PUBLIC        INIT_DEVICE
  B:00C0H.2       SYMBOL        AA
  B:00D0H.6       SYMBOL        AC
  D:00E0H         SYMBOL        ACC
  B:00E8H.4       SYMBOL        AD0BUSY
  B:00E8H.7       SYMBOL        AD0EN
  B:00E8H.5       SYMBOL        AD0INT
  B:00E8H.0       SYMBOL        AD0LJST
  B:00E8H.2       SYMBOL        AD0STM0
  B:00E8H.3       SYMBOL        AD0STM1
  B:00E8H.6       SYMBOL        AD0TM
  B:00E8H.1       SYMBOL        AD0WINT
  D:00BCH         SYMBOL        ADC0CF
  D:00E8H         SYMBOL        ADC0CN
  D:00C5H         SYMBOL        ADC0GTH
  D:00C4H         SYMBOL        ADC0GTL
  D:00BFH         SYMBOL        ADC0H
  D:00BEH         SYMBOL        ADC0L
  D:00C7H         SYMBOL        ADC0LTH
  D:00C6H         SYMBOL        ADC0LTL
  D:009CH         SYMBOL        ADC1
  D:00ABH         SYMBOL        ADC1CF
  D:00AAH         SYMBOL        ADC1CN
  D:00BAH         SYMBOL        AMX0CF
  D:00BBH         SYMBOL        AMX0SL
  D:00ACH         SYMBOL        AMX1SL
  D:00F0H         SYMBOL        B
  B:00D8H.0       SYMBOL        CCF0
  B:00D8H.1       SYMBOL        CCF1
  B:00D8H.2       SYMBOL        CCF2
  B:00D8H.3       SYMBOL        CCF3
  B:00D8H.4       SYMBOL        CCF4
  B:00D8H.7       SYMBOL        CF
  D:008EH         SYMBOL        CKCON
  B:00C8H.0       SYMBOL        CPRL2
  D:009EH         SYMBOL        CPT0CN
  D:009FH         SYMBOL        CPT1CN
  B:00D8H.6       SYMBOL        CR
  B:00C8H.1       SYMBOL        CT2
  B:00D0H.7       SYMBOL        CY
  D:00D4H         SYMBOL        DAC0CN
  D:00D3H         SYMBOL        DAC0H
  D:00D2H         SYMBOL        DAC0L
  D:00D7H         SYMBOL        DAC1CN
  D:00D6H         SYMBOL        DAC1H
  D:00D5H         SYMBOL        DAC1L
  D:0083H         SYMBOL        DPH
  D:0082H         SYMBOL        DPL
  B:00A8H.7       SYMBOL        EA
  D:00E6H         SYMBOL        EIE1
  D:00E7H         SYMBOL        EIE2
  D:00F6H         SYMBOL        EIP1
  D:00F7H         SYMBOL        EIP2
  D:00A3H         SYMBOL        EMI0CF
  D:00AFH         SYMBOL        EMI0CN
BL51 BANKED LINKER/LOCATER V6.22.4.0                                                  01/10/2026  10:26:27  PAGE 3


  D:00A1H         SYMBOL        EMI0TC
  B:00C0H.6       SYMBOL        ENSMB
  B:00A8H.4       SYMBOL        ES
  B:00A8H.1       SYMBOL        ET0
  B:00A8H.3       SYMBOL        ET1
  B:00A8H.5       SYMBOL        ET2
  B:00A8H.0       SYMBOL        EX0
  B:00A8H.2       SYMBOL        EX1
  B:00C8H.3       SYMBOL        EXEN2
  B:00C8H.6       SYMBOL        EXF2
  B:00D0H.5       SYMBOL        F0
  B:00D0H.1       SYMBOL        F1
  D:00B7H         SYMBOL        FLACL
  D:00B6H         SYMBOL        FLSCL
  D:00A8H         SYMBOL        IE
  B:0088H.1       SYMBOL        IE0
  B:0088H.3       SYMBOL        IE1
  D:00B8H         SYMBOL        IP
  B:0088H.0       SYMBOL        IT0
  B:0088H.2       SYMBOL        IT1
  B:00F8H.5       SYMBOL        MODF
  B:00F8H.1       SYMBOL        MSTEN
  D:00B2H         SYMBOL        OSCICN
  C:1443H         SYMBOL        OSCILLATOR_INIT
  D:00B1H         SYMBOL        OSCXCN
  B:00D0H.2       SYMBOL        OV
  B:00D0H.0       SYMBOL        P
  D:0080H         SYMBOL        P0
  D:00A4H         SYMBOL        P0MDOUT
  D:0090H         SYMBOL        P1
  D:00BDH         SYMBOL        P1MDIN
  D:00A5H         SYMBOL        P1MDOUT
  D:00A0H         SYMBOL        P2
  D:00A6H         SYMBOL        P2MDOUT
  D:00B0H         SYMBOL        P3
  D:00ADH         SYMBOL        P3IF
  D:00A7H         SYMBOL        P3MDOUT
  D:0084H         SYMBOL        P4
  D:0085H         SYMBOL        P5
  D:0086H         SYMBOL        P6
  D:0096H         SYMBOL        P7
  D:00B5H         SYMBOL        P74OUT
  D:00D8H         SYMBOL        PCA0CN
  D:00FAH         SYMBOL        PCA0CPH0
  D:00FBH         SYMBOL        PCA0CPH1
  D:00FCH         SYMBOL        PCA0CPH2
  D:00FDH         SYMBOL        PCA0CPH3
  D:00FEH         SYMBOL        PCA0CPH4
  D:00EAH         SYMBOL        PCA0CPL0
  D:00EBH         SYMBOL        PCA0CPL1
  D:00ECH         SYMBOL        PCA0CPL2
  D:00EDH         SYMBOL        PCA0CPL3
  D:00EEH         SYMBOL        PCA0CPL4
  D:00DAH         SYMBOL        PCA0CPM0
  D:00DBH         SYMBOL        PCA0CPM1
  D:00DCH         SYMBOL        PCA0CPM2
  D:00DDH         SYMBOL        PCA0CPM3
BL51 BANKED LINKER/LOCATER V6.22.4.0                                                  01/10/2026  10:26:27  PAGE 4


  D:00DEH         SYMBOL        PCA0CPM4
  D:00F9H         SYMBOL        PCA0H
  D:00E9H         SYMBOL        PCA0L
  D:00D9H         SYMBOL        PCA0MD
  D:0087H         SYMBOL        PCON
  C:1447H         SYMBOL        PORT_IO_INIT
  B:00B8H.4       SYMBOL        PS
  D:008FH         SYMBOL        PSCTL
  D:00D0H         SYMBOL        PSW
  B:00B8H.1       SYMBOL        PT0
  B:00B8H.3       SYMBOL        PT1
  B:00B8H.5       SYMBOL        PT2
  B:00B8H.0       SYMBOL        PX0
  B:00B8H.2       SYMBOL        PX1
  B:0098H.2       SYMBOL        RB8
  D:00CBH         SYMBOL        RCAP2H
  D:00CAH         SYMBOL        RCAP2L
  D:00E5H         SYMBOL        RCAP4H
  D:00E4H         SYMBOL        RCAP4L
  B:00C8H.5       SYMBOL        RCLK
  D:00D1H         SYMBOL        REF0CN
  B:0098H.4       SYMBOL        REN
  C:1438H         SYMBOL        RESET_SOURCES_INIT
  B:0098H.0       SYMBOL        RI
  B:00D0H.3       SYMBOL        RS0
  B:00D0H.4       SYMBOL        RS1
  D:00EFH         SYMBOL        RSTSRC
  B:00F8H.4       SYMBOL        RXOVRN
  D:00A9H         SYMBOL        SADDR0
  D:00F3H         SYMBOL        SADDR1
  D:00B9H         SYMBOL        SADEN0
  D:00AEH         SYMBOL        SADEN1
  D:0099H         SYMBOL        SBUF0
  D:00F2H         SYMBOL        SBUF1
  D:0098H         SYMBOL        SCON0
  D:00F1H         SYMBOL        SCON1
  B:00C0H.3       SYMBOL        SI
  B:00F8H.2       SYMBOL        SLVSEL
  B:0098H.7       SYMBOL        SM0
  B:0098H.6       SYMBOL        SM1
  B:0098H.5       SYMBOL        SM2
  D:00C3H         SYMBOL        SMB0ADR
  D:00C0H         SYMBOL        SMB0CN
  D:00CFH         SYMBOL        SMB0CR
  D:00C2H         SYMBOL        SMB0DAT
  D:00C1H         SYMBOL        SMB0STA
  B:00C0H.1       SYMBOL        SMBFTE
  B:00C0H.0       SYMBOL        SMBTOE
  D:0081H         SYMBOL        SP
  D:009AH         SYMBOL        SPI0CFG
  D:009DH         SYMBOL        SPI0CKR
  D:00F8H         SYMBOL        SPI0CN
  D:009BH         SYMBOL        SPI0DAT
  B:00F8H.0       SYMBOL        SPIEN
  B:00F8H.7       SYMBOL        SPIF
  B:00C0H.5       SYMBOL        STA
  B:00C0H.4       SYMBOL        STO
BL51 BANKED LINKER/LOCATER V6.22.4.0                                                  01/10/2026  10:26:27  PAGE 5


  D:00C8H         SYMBOL        T2CON
  D:00C9H         SYMBOL        T4CON
  B:0098H.3       SYMBOL        TB8
  B:00C8H.4       SYMBOL        TCLK
  D:0088H         SYMBOL        TCON
  B:0088H.5       SYMBOL        TF0
  B:0088H.7       SYMBOL        TF1
  B:00C8H.7       SYMBOL        TF2
  D:008CH         SYMBOL        TH0
  D:008DH         SYMBOL        TH1
  D:00CDH         SYMBOL        TH2
  D:00F5H         SYMBOL        TH4
  B:0098H.1       SYMBOL        TI
  C:143FH         SYMBOL        TIMER_INIT
  D:008AH         SYMBOL        TL0
  D:008BH         SYMBOL        TL1
  D:00CCH         SYMBOL        TL2
  D:00F4H         SYMBOL        TL4
  D:0089H         SYMBOL        TMOD
  D:0091H         SYMBOL        TMR3CN
  D:0095H         SYMBOL        TMR3H
  D:0094H         SYMBOL        TMR3L
  D:0093H         SYMBOL        TMR3RLH
  D:0092H         SYMBOL        TMR3RLL
  B:0088H.4       SYMBOL        TR0
  B:0088H.6       SYMBOL        TR1
  B:00C8H.2       SYMBOL        TR2
  B:00F8H.3       SYMBOL        TXBSY
  B:00F8H.6       SYMBOL        WCOL
  D:00FFH         SYMBOL        WDTCN
  D:00E1H         SYMBOL        XBR0
  D:00E2H         SYMBOL        XBR1
  D:00E3H         SYMBOL        XBR2
  C:1438H         LINE#         15
  C:143BH         LINE#         16
  C:143EH         LINE#         18
  C:143FH         LINE#         21
  C:1442H         LINE#         22
  C:1443H         LINE#         25
  C:1446H         LINE#         26
  C:1447H         LINE#         68
  C:144AH         LINE#         69
  C:144DH         LINE#         70
  C:1450H         LINE#         71
  C:1453H         LINE#         72
  C:1456H         LINE#         73
  C:1459H         LINE#         76
  C:145CH         LINE#         77
  C:145DH         LINE#         83
  C:1460H         LINE#         84
  C:1463H         LINE#         85
  C:1466H         LINE#         86
  C:1469H         LINE#         87
  -------         ENDMOD        INIT_DEVICE

  -------         MODULE        MAIN
  B:00C0H.2       SYMBOL        AA
BL51 BANKED LINKER/LOCATER V6.22.4.0                                                  01/10/2026  10:26:27  PAGE 6


  B:00D0H.6       SYMBOL        AC
  D:00E0H         SYMBOL        ACC
  B:00E8H.4       SYMBOL        AD0BUSY
  B:00E8H.7       SYMBOL        AD0EN
  B:00E8H.5       SYMBOL        AD0INT
  B:00E8H.0       SYMBOL        AD0LJST
  B:00E8H.2       SYMBOL        AD0STM0
  B:00E8H.3       SYMBOL        AD0STM1
  B:00E8H.6       SYMBOL        AD0TM
  B:00E8H.1       SYMBOL        AD0WINT
  D:00BCH         SYMBOL        ADC0CF
  D:00E8H         SYMBOL        ADC0CN
  D:00C5H         SYMBOL        ADC0GTH
  D:00C4H         SYMBOL        ADC0GTL
  D:00BFH         SYMBOL        ADC0H
  D:00BEH         SYMBOL        ADC0L
  D:00C7H         SYMBOL        ADC0LTH
  D:00C6H         SYMBOL        ADC0LTL
  D:009CH         SYMBOL        ADC1
  D:00ABH         SYMBOL        ADC1CF
  D:00AAH         SYMBOL        ADC1CN
  D:00BAH         SYMBOL        AMX0CF
  D:00BBH         SYMBOL        AMX0SL
  D:00ACH         SYMBOL        AMX1SL
  D:00F0H         SYMBOL        B
  C:0026H         SYMBOL        BITMASK_TABLE
  N:005AH         SYMBOL        BLINK_TIMER
  N:005BH         SYMBOL        BLINK_TOGGLE
  B:00D8H.0       SYMBOL        CCF0
  B:00D8H.1       SYMBOL        CCF1
  B:00D8H.2       SYMBOL        CCF2
  B:00D8H.3       SYMBOL        CCF3
  B:00D8H.4       SYMBOL        CCF4
  B:00D8H.7       SYMBOL        CF
  C:0250H         SYMBOL        CHECK_ELEV
  C:0258H         SYMBOL        CHECK_ELEV2
  C:0260H         SYMBOL        CHECK_ELEV3
  C:0268H         SYMBOL        CHECK_ELEV4
  C:02A0H         SYMBOL        CHECK_NEW_PASS_ST
  C:0270H         SYMBOL        CHECK_OPT
  C:0278H         SYMBOL        CHECK_OPT1
  C:0280H         SYMBOL        CHECK_OPT2
  C:0288H         SYMBOL        CHECK_OPT3
  C:0290H         SYMBOL        CHECK_PASS
  C:0298H         SYMBOL        CHECK_RESET_CHOICE
  D:008EH         SYMBOL        CKCON
  B:00C8H.0       SYMBOL        CPRL2
  D:009EH         SYMBOL        CPT0CN
  D:009FH         SYMBOL        CPT1CN
  B:00D8H.6       SYMBOL        CR
  B:00C8H.1       SYMBOL        CT2
  N:0068H         SYMBOL        CURRENT_PASS
  N:0056H         SYMBOL        CUR_FLR
  B:00D0H.7       SYMBOL        CY
  D:00D4H         SYMBOL        DAC0CN
  D:00D3H         SYMBOL        DAC0H
  D:00D2H         SYMBOL        DAC0L
BL51 BANKED LINKER/LOCATER V6.22.4.0                                                  01/10/2026  10:26:27  PAGE 7


  D:00D7H         SYMBOL        DAC1CN
  D:00D6H         SYMBOL        DAC1H
  D:00D5H         SYMBOL        DAC1L
  N:0067H         SYMBOL        DEBUG_ON
  D:0083H         SYMBOL        DPH
  D:0082H         SYMBOL        DPL
  B:00A8H.7       SYMBOL        EA
  D:00E6H         SYMBOL        EIE1
  D:00E7H         SYMBOL        EIE2
  D:00F6H         SYMBOL        EIP1
  D:00F7H         SYMBOL        EIP2
  N:0022H         SYMBOL        ELEV_ARRIVED
  N:0023H         SYMBOL        ELEV_CLOSE
  N:0064H         SYMBOL        ELEV_DIR
  N:0021H         SYMBOL        ELEV_RUN
  N:0020H         SYMBOL        ELEV_ST
  N:0058H         SYMBOL        ELEV_TARGET
  N:0057H         SYMBOL        ELEV_TIMER
  D:00A3H         SYMBOL        EMI0CF
  D:00AFH         SYMBOL        EMI0CN
  D:00A1H         SYMBOL        EMI0TC
  B:00C0H.6       SYMBOL        ENSMB
  B:00A8H.4       SYMBOL        ES
  B:00A8H.1       SYMBOL        ET0
  B:00A8H.3       SYMBOL        ET1
  B:00A8H.5       SYMBOL        ET2
  B:00A8H.0       SYMBOL        EX0
  B:00A8H.2       SYMBOL        EX1
  B:00C8H.3       SYMBOL        EXEN2
  B:00C8H.6       SYMBOL        EXF2
  N:0063H         SYMBOL        EXT_DN_HI
  N:0062H         SYMBOL        EXT_DN_LO
  N:005FH         SYMBOL        EXT_UP_HI
  N:005EH         SYMBOL        EXT_UP_LO
  B:00D0H.5       SYMBOL        F0
  B:00D0H.1       SYMBOL        F1
  D:00B7H         SYMBOL        FLACL
  D:00B6H         SYMBOL        FLSCL
  D:00A8H         SYMBOL        IE
  B:0088H.1       SYMBOL        IE0
  B:0088H.3       SYMBOL        IE1
  N:0065H         SYMBOL        INPUT_MODE
  N:005DH         SYMBOL        INT_REQ_HI
  N:005CH         SYMBOL        INT_REQ_LO
  D:00B8H         SYMBOL        IP
  B:0088H.0       SYMBOL        IT0
  B:0088H.2       SYMBOL        IT1
  C:0243H         SYMBOL        LOOP
  C:0200H         SYMBOL        MAIN
  B:00F8H.5       SYMBOL        MODF
  B:00F8H.1       SYMBOL        MSTEN
  C:0246H         SYMBOL        MXK_STATE_CHECK
  N:0004H         SYMBOL        NEW_PASS_ST
  N:0059H         SYMBOL        ONE_SEC_CNT
  N:0011H         SYMBOL        OPT1_ST
  N:0012H         SYMBOL        OPT2_ST
  N:0013H         SYMBOL        OPT3_ST
BL51 BANKED LINKER/LOCATER V6.22.4.0                                                  01/10/2026  10:26:27  PAGE 8


  N:0001H         SYMBOL        OPT_ST
  D:00B2H         SYMBOL        OSCICN
  D:00B1H         SYMBOL        OSCXCN
  N:0066H         SYMBOL        OUT_SEL_VAL
  B:00D0H.2       SYMBOL        OV
  B:00D0H.0       SYMBOL        P
  D:0080H         SYMBOL        P0
  D:00A4H         SYMBOL        P0MDOUT
  D:0090H         SYMBOL        P1
  D:00BDH         SYMBOL        P1MDIN
  D:00A5H         SYMBOL        P1MDOUT
  D:00A0H         SYMBOL        P2
  D:00A6H         SYMBOL        P2MDOUT
  D:00B0H         SYMBOL        P3
  D:00ADH         SYMBOL        P3IF
  D:00A7H         SYMBOL        P3MDOUT
  D:0084H         SYMBOL        P4
  D:0085H         SYMBOL        P5
  D:0086H         SYMBOL        P6
  D:0096H         SYMBOL        P7
  D:00B5H         SYMBOL        P74OUT
  C:002CH         SYMBOL        PASSWORD_TABLE
  N:006DH         SYMBOL        PASS_NEXT_ST
  N:0002H         SYMBOL        PASS_ST
  D:00D8H         SYMBOL        PCA0CN
  D:00FAH         SYMBOL        PCA0CPH0
  D:00FBH         SYMBOL        PCA0CPH1
  D:00FCH         SYMBOL        PCA0CPH2
  D:00FDH         SYMBOL        PCA0CPH3
  D:00FEH         SYMBOL        PCA0CPH4
  D:00EAH         SYMBOL        PCA0CPL0
  D:00EBH         SYMBOL        PCA0CPL1
  D:00ECH         SYMBOL        PCA0CPL2
  D:00EDH         SYMBOL        PCA0CPL3
  D:00EEH         SYMBOL        PCA0CPL4
  D:00DAH         SYMBOL        PCA0CPM0
  D:00DBH         SYMBOL        PCA0CPM1
  D:00DCH         SYMBOL        PCA0CPM2
  D:00DDH         SYMBOL        PCA0CPM3
  D:00DEH         SYMBOL        PCA0CPM4
  D:00F9H         SYMBOL        PCA0H
  D:00E9H         SYMBOL        PCA0L
  D:00D9H         SYMBOL        PCA0MD
  D:0087H         SYMBOL        PCON
  B:00B8H.4       SYMBOL        PS
  D:008FH         SYMBOL        PSCTL
  D:00D0H         SYMBOL        PSW
  B:00B8H.1       SYMBOL        PT0
  B:00B8H.3       SYMBOL        PT1
  B:00B8H.5       SYMBOL        PT2
  B:00B8H.0       SYMBOL        PX0
  B:00B8H.2       SYMBOL        PX1
  B:0098H.2       SYMBOL        RB8
  D:00CBH         SYMBOL        RCAP2H
  D:00CAH         SYMBOL        RCAP2L
  D:00E5H         SYMBOL        RCAP4H
  D:00E4H         SYMBOL        RCAP4L
BL51 BANKED LINKER/LOCATER V6.22.4.0                                                  01/10/2026  10:26:27  PAGE 9


  B:00C8H.5       SYMBOL        RCLK
  D:00D1H         SYMBOL        REF0CN
  B:0098H.4       SYMBOL        REN
  N:0003H         SYMBOL        RESET_CHOICE_ST
  B:0098H.0       SYMBOL        RI
  B:00D0H.3       SYMBOL        RS0
  B:00D0H.4       SYMBOL        RS1
  D:00EFH         SYMBOL        RSTSRC
  N:0000H         SYMBOL        RUN_ST
  B:00F8H.4       SYMBOL        RXOVRN
  D:00A9H         SYMBOL        SADDR0
  D:00F3H         SYMBOL        SADDR1
  D:00B9H         SYMBOL        SADEN0
  D:00AEH         SYMBOL        SADEN1
  D:0099H         SYMBOL        SBUF0
  D:00F2H         SYMBOL        SBUF1
  D:0098H         SYMBOL        SCON0
  D:00F1H         SYMBOL        SCON1
  C:0000H         SYMBOL        SEG_TABLE
  B:00C0H.3       SYMBOL        SI
  C:023AH         SYMBOL        SKIP_DEBUG
  C:02A8H         SYMBOL        SKIP_PASS
  B:00F8H.2       SYMBOL        SLVSEL
  B:0098H.7       SYMBOL        SM0
  B:0098H.6       SYMBOL        SM1
  B:0098H.5       SYMBOL        SM2
  D:00C3H         SYMBOL        SMB0ADR
  D:00C0H         SYMBOL        SMB0CN
  D:00CFH         SYMBOL        SMB0CR
  D:00C2H         SYMBOL        SMB0DAT
  D:00C1H         SYMBOL        SMB0STA
  B:00C0H.1       SYMBOL        SMBFTE
  B:00C0H.0       SYMBOL        SMBTOE
  D:0081H         SYMBOL        SP
  D:009AH         SYMBOL        SPI0CFG
  D:009DH         SYMBOL        SPI0CKR
  D:00F8H         SYMBOL        SPI0CN
  D:009BH         SYMBOL        SPI0DAT
  B:00F8H.0       SYMBOL        SPIEN
  B:00F8H.7       SYMBOL        SPIF
  B:00C0H.5       SYMBOL        STA
  B:00C0H.4       SYMBOL        STO
  D:00C8H         SYMBOL        T2CON
  D:00C9H         SYMBOL        T4CON
  B:0098H.3       SYMBOL        TB8
  B:00C8H.4       SYMBOL        TCLK
  D:0088H         SYMBOL        TCON
  B:0088H.5       SYMBOL        TF0
  B:0088H.7       SYMBOL        TF1
  B:00C8H.7       SYMBOL        TF2
  D:008CH         SYMBOL        TH0
  D:008DH         SYMBOL        TH1
  D:00CDH         SYMBOL        TH2
  D:00F5H         SYMBOL        TH4
  B:0098H.1       SYMBOL        TI
  D:008AH         SYMBOL        TL0
  D:008BH         SYMBOL        TL1
BL51 BANKED LINKER/LOCATER V6.22.4.0                                                  01/10/2026  10:26:27  PAGE 10


  D:00CCH         SYMBOL        TL2
  D:00F4H         SYMBOL        TL4
  D:0089H         SYMBOL        TMOD
  D:0091H         SYMBOL        TMR3CN
  D:0095H         SYMBOL        TMR3H
  D:0094H         SYMBOL        TMR3L
  D:0093H         SYMBOL        TMR3RLH
  D:0092H         SYMBOL        TMR3RLL
  B:0088H.4       SYMBOL        TR0
  B:0088H.6       SYMBOL        TR1
  B:00C8H.2       SYMBOL        TR2
  B:00F8H.3       SYMBOL        TXBSY
  B:00F8H.6       SYMBOL        WCOL
  D:00FFH         SYMBOL        WDTCN
  D:00E1H         SYMBOL        XBR0
  D:00E2H         SYMBOL        XBR1
  D:00E3H         SYMBOL        XBR2
  C:0000H         LINE#         23
  C:000BH         LINE#         26
  C:001BH         LINE#         29
  C:002BH         LINE#         32
  C:0200H         LINE#         36
  C:0203H         LINE#         38
  C:0206H         LINE#         39
  C:0209H         LINE#         43
  C:020CH         LINE#         46
  C:020EH         LINE#         47
  C:0211H         LINE#         49
  C:0214H         LINE#         51
  C:0217H         LINE#         52
  C:021AH         LINE#         54
  C:021DH         LINE#         55
  C:0220H         LINE#         56
  C:0223H         LINE#         57
  C:0226H         LINE#         58
  C:0229H         LINE#         59
  C:022CH         LINE#         61
  C:022FH         LINE#         62
  C:0232H         LINE#         63
  C:0235H         LINE#         64
  C:0237H         LINE#         65
  C:023AH         LINE#         72
  C:023DH         LINE#         73
  C:0240H         LINE#         76
  C:0243H         LINE#         104
  C:0246H         LINE#         107
  C:0248H         LINE#         108
  C:024BH         LINE#         109
  C:024EH         LINE#         110
  C:0250H         LINE#         112
  C:0253H         LINE#         113
  C:0256H         LINE#         114
  C:0258H         LINE#         116
  C:025BH         LINE#         117
  C:025EH         LINE#         118
  C:0260H         LINE#         120
  C:0263H         LINE#         121
BL51 BANKED LINKER/LOCATER V6.22.4.0                                                  01/10/2026  10:26:27  PAGE 11


  C:0266H         LINE#         122
  C:0268H         LINE#         124
  C:026BH         LINE#         125
  C:026EH         LINE#         126
  C:0270H         LINE#         128
  C:0273H         LINE#         129
  C:0276H         LINE#         130
  C:0278H         LINE#         132
  C:027BH         LINE#         133
  C:027EH         LINE#         134
  C:0280H         LINE#         136
  C:0283H         LINE#         137
  C:0286H         LINE#         138
  C:0288H         LINE#         140
  C:028BH         LINE#         141
  C:028EH         LINE#         142
  C:0290H         LINE#         144
  C:0293H         LINE#         145
  C:0296H         LINE#         146
  C:0298H         LINE#         148
  C:029BH         LINE#         149
  C:029EH         LINE#         150
  C:02A0H         LINE#         152
  C:02A3H         LINE#         153
  C:02A6H         LINE#         154
  C:02A8H         LINE#         156
  -------         ENDMOD        MAIN

  -------         MODULE        KEYINPUT
  C:13A9H         SEGMENT       KBI
  C:13A9H         PUBLIC        KEYINPUT_PROCESS
  C:13B8H         SYMBOL        KBI_AFTER_STABLE_CHECK
  C:13C4H         SYMBOL        KBI_CONF_CHANGED
  C:13D5H         SYMBOL        KBI_CONF_CHECK_RELEASE
  C:13F3H         SYMBOL        KBI_CONF_PRESSED
  C:13E3H         SYMBOL        KBI_LONG_PRESS
  C:1402H         SYMBOL        KBI_RETURN
  C:13B3H         SYMBOL        KBI_SAMPLE_CHANGED
  C:13EBH         SYMBOL        KBI_SHORT_PRESS
  C:13A9H         LINE#         16
  C:13ACH         LINE#         17
  C:13AFH         LINE#         18
  C:13B1H         LINE#         19
  C:13B3H         LINE#         22
  C:13B5H         LINE#         23
  C:13B8H         LINE#         26
  C:13BAH         LINE#         27
  C:13BDH         LINE#         28
  C:13BFH         LINE#         29
  C:13C2H         LINE#         30
  C:13C4H         LINE#         33
  C:13C6H         LINE#         34
  C:13C8H         LINE#         35
  C:13CAH         LINE#         36
  C:13CDH         LINE#         37
  C:13D0H         LINE#         38
  C:13D3H         LINE#         39
BL51 BANKED LINKER/LOCATER V6.22.4.0                                                  01/10/2026  10:26:27  PAGE 12


  C:13D5H         LINE#         42
  C:13D7H         LINE#         43
  C:13DAH         LINE#         44
  C:13DCH         LINE#         45
  C:13DDH         LINE#         46
  C:13DFH         LINE#         47
  C:13E1H         LINE#         48
  C:13E3H         LINE#         51
  C:13E6H         LINE#         52
  C:13E9H         LINE#         53
  C:13EBH         LINE#         56
  C:13EEH         LINE#         57
  C:13F1H         LINE#         58
  C:13F3H         LINE#         61
  C:13F5H         LINE#         62
  C:13F7H         LINE#         63
  C:13F9H         LINE#         64
  C:13FCH         LINE#         65
  C:13FFH         LINE#         66
  C:1402H         LINE#         69
  -------         ENDMOD        KEYINPUT

  -------         MODULE        LCD1602
  C:1313H         SEGMENT       LCD1602
  C:1398H         PUBLIC        LCD_CLEAR
  C:134BH         PUBLIC        LCD_INIT
  C:139EH         PUBLIC        LCD_SHOW_STR
  C:1378H         PUBLIC        LCD_WR_CMD
  C:1381H         PUBLIC        LCD_WR_DAT
  B:00C0H.2       SYMBOL        AA
  B:00D0H.6       SYMBOL        AC
  D:00E0H         SYMBOL        ACC
  B:00E8H.4       SYMBOL        AD0BUSY
  B:00E8H.7       SYMBOL        AD0EN
  B:00E8H.5       SYMBOL        AD0INT
  B:00E8H.0       SYMBOL        AD0LJST
  B:00E8H.2       SYMBOL        AD0STM0
  B:00E8H.3       SYMBOL        AD0STM1
  B:00E8H.6       SYMBOL        AD0TM
  B:00E8H.1       SYMBOL        AD0WINT
  D:00BCH         SYMBOL        ADC0CF
  D:00E8H         SYMBOL        ADC0CN
  D:00C5H         SYMBOL        ADC0GTH
  D:00C4H         SYMBOL        ADC0GTL
  D:00BFH         SYMBOL        ADC0H
  D:00BEH         SYMBOL        ADC0L
  D:00C7H         SYMBOL        ADC0LTH
  D:00C6H         SYMBOL        ADC0LTL
  D:009CH         SYMBOL        ADC1
  D:00ABH         SYMBOL        ADC1CF
  D:00AAH         SYMBOL        ADC1CN
  D:00BAH         SYMBOL        AMX0CF
  D:00BBH         SYMBOL        AMX0SL
  D:00ACH         SYMBOL        AMX1SL
  D:00F0H         SYMBOL        B
  B:00D8H.0       SYMBOL        CCF0
  B:00D8H.1       SYMBOL        CCF1
BL51 BANKED LINKER/LOCATER V6.22.4.0                                                  01/10/2026  10:26:27  PAGE 13


  B:00D8H.2       SYMBOL        CCF2
  B:00D8H.3       SYMBOL        CCF3
  B:00D8H.4       SYMBOL        CCF4
  B:00D8H.7       SYMBOL        CF
  D:008EH         SYMBOL        CKCON
  B:00C8H.0       SYMBOL        CPRL2
  D:009EH         SYMBOL        CPT0CN
  D:009FH         SYMBOL        CPT1CN
  B:00D8H.6       SYMBOL        CR
  B:00C8H.1       SYMBOL        CT2
  B:00D0H.7       SYMBOL        CY
  D:00D4H         SYMBOL        DAC0CN
  D:00D3H         SYMBOL        DAC0H
  D:00D2H         SYMBOL        DAC0L
  D:00D7H         SYMBOL        DAC1CN
  D:00D6H         SYMBOL        DAC1H
  D:00D5H         SYMBOL        DAC1L
  D:0083H         SYMBOL        DPH
  D:0082H         SYMBOL        DPL
  B:00A8H.7       SYMBOL        EA
  D:00E6H         SYMBOL        EIE1
  D:00E7H         SYMBOL        EIE2
  D:00F6H         SYMBOL        EIP1
  D:00F7H         SYMBOL        EIP2
  D:00A3H         SYMBOL        EMI0CF
  D:00AFH         SYMBOL        EMI0CN
  D:00A1H         SYMBOL        EMI0TC
  B:00C0H.6       SYMBOL        ENSMB
  B:00A8H.4       SYMBOL        ES
  B:00A8H.1       SYMBOL        ET0
  B:00A8H.3       SYMBOL        ET1
  B:00A8H.5       SYMBOL        ET2
  B:00A8H.0       SYMBOL        EX0
  B:00A8H.2       SYMBOL        EX1
  B:00C8H.3       SYMBOL        EXEN2
  B:00C8H.6       SYMBOL        EXF2
  B:00D0H.5       SYMBOL        F0
  B:00D0H.1       SYMBOL        F1
  D:00B7H         SYMBOL        FLACL
  D:00B6H         SYMBOL        FLSCL
  D:00A8H         SYMBOL        IE
  B:0088H.1       SYMBOL        IE0
  B:0088H.3       SYMBOL        IE1
  D:00B8H         SYMBOL        IP
  B:0088H.0       SYMBOL        IT0
  B:0088H.2       SYMBOL        IT1
  D:00B0H         SYMBOL        LCD_BUS
  C:133DH         SYMBOL        LCD_CLR_E
  C:1321H         SYMBOL        LCD_CLR_RS
  N:0080H         SYMBOL        LCD_E_MASK
  N:0040H         SYMBOL        LCD_RS_MASK
  C:132FH         SYMBOL        LCD_SET_E
  C:1313H         SYMBOL        LCD_SET_RS
  C:13A8H         SYMBOL        LCD_STR_END
  C:139EH         SYMBOL        LCD_STR_LOOP
  C:1388H         SYMBOL        LCD_WR_COM
  B:00F8H.5       SYMBOL        MODF
BL51 BANKED LINKER/LOCATER V6.22.4.0                                                  01/10/2026  10:26:27  PAGE 14


  B:00F8H.1       SYMBOL        MSTEN
  D:00B2H         SYMBOL        OSCICN
  D:00B1H         SYMBOL        OSCXCN
  B:00D0H.2       SYMBOL        OV
  B:00D0H.0       SYMBOL        P
  D:0080H         SYMBOL        P0
  D:00A4H         SYMBOL        P0MDOUT
  D:0090H         SYMBOL        P1
  D:00BDH         SYMBOL        P1MDIN
  D:00A5H         SYMBOL        P1MDOUT
  D:00A0H         SYMBOL        P2
  D:00A6H         SYMBOL        P2MDOUT
  D:00B0H         SYMBOL        P3
  D:00ADH         SYMBOL        P3IF
  D:00A7H         SYMBOL        P3MDOUT
  D:0084H         SYMBOL        P4
  D:00A4H         SYMBOL        P4MDOUT
  D:0085H         SYMBOL        P5
  D:0086H         SYMBOL        P6
  D:0096H         SYMBOL        P7
  D:00B5H         SYMBOL        P74OUT
  D:00D8H         SYMBOL        PCA0CN
  D:00FAH         SYMBOL        PCA0CPH0
  D:00FBH         SYMBOL        PCA0CPH1
  D:00FCH         SYMBOL        PCA0CPH2
  D:00FDH         SYMBOL        PCA0CPH3
  D:00FEH         SYMBOL        PCA0CPH4
  D:00EAH         SYMBOL        PCA0CPL0
  D:00EBH         SYMBOL        PCA0CPL1
  D:00ECH         SYMBOL        PCA0CPL2
  D:00EDH         SYMBOL        PCA0CPL3
  D:00EEH         SYMBOL        PCA0CPL4
  D:00DAH         SYMBOL        PCA0CPM0
  D:00DBH         SYMBOL        PCA0CPM1
  D:00DCH         SYMBOL        PCA0CPM2
  D:00DDH         SYMBOL        PCA0CPM3
  D:00DEH         SYMBOL        PCA0CPM4
  D:00F9H         SYMBOL        PCA0H
  D:00E9H         SYMBOL        PCA0L
  D:00D9H         SYMBOL        PCA0MD
  D:0087H         SYMBOL        PCON
  B:00B8H.4       SYMBOL        PS
  D:008FH         SYMBOL        PSCTL
  D:00D0H         SYMBOL        PSW
  B:00B8H.1       SYMBOL        PT0
  B:00B8H.3       SYMBOL        PT1
  B:00B8H.5       SYMBOL        PT2
  B:00B8H.0       SYMBOL        PX0
  B:00B8H.2       SYMBOL        PX1
  B:0098H.2       SYMBOL        RB8
  D:00CBH         SYMBOL        RCAP2H
  D:00CAH         SYMBOL        RCAP2L
  D:00E5H         SYMBOL        RCAP4H
  D:00E4H         SYMBOL        RCAP4L
  B:00C8H.5       SYMBOL        RCLK
  D:00D1H         SYMBOL        REF0CN
  B:0098H.4       SYMBOL        REN
BL51 BANKED LINKER/LOCATER V6.22.4.0                                                  01/10/2026  10:26:27  PAGE 15


  B:0098H.0       SYMBOL        RI
  B:00D0H.3       SYMBOL        RS0
  B:00D0H.4       SYMBOL        RS1
  D:00EFH         SYMBOL        RSTSRC
  B:00F8H.4       SYMBOL        RXOVRN
  D:00A9H         SYMBOL        SADDR0
  D:00F3H         SYMBOL        SADDR1
  D:00B9H         SYMBOL        SADEN0
  D:00AEH         SYMBOL        SADEN1
  D:0099H         SYMBOL        SBUF0
  D:00F2H         SYMBOL        SBUF1
  D:0098H         SYMBOL        SCON0
  D:00F1H         SYMBOL        SCON1
  D:00F1H         SYMBOL        SFRPAGE
  B:00C0H.3       SYMBOL        SI
  B:00F8H.2       SYMBOL        SLVSEL
  B:0098H.7       SYMBOL        SM0
  B:0098H.6       SYMBOL        SM1
  B:0098H.5       SYMBOL        SM2
  D:00C3H         SYMBOL        SMB0ADR
  D:00C0H         SYMBOL        SMB0CN
  D:00CFH         SYMBOL        SMB0CR
  D:00C2H         SYMBOL        SMB0DAT
  D:00C1H         SYMBOL        SMB0STA
  B:00C0H.1       SYMBOL        SMBFTE
  B:00C0H.0       SYMBOL        SMBTOE
  D:0081H         SYMBOL        SP
  D:009AH         SYMBOL        SPI0CFG
  D:009DH         SYMBOL        SPI0CKR
  D:00F8H         SYMBOL        SPI0CN
  D:009BH         SYMBOL        SPI0DAT
  B:00F8H.0       SYMBOL        SPIEN
  B:00F8H.7       SYMBOL        SPIF
  B:00C0H.5       SYMBOL        STA
  B:00C0H.4       SYMBOL        STO
  D:00C8H         SYMBOL        T2CON
  D:00C9H         SYMBOL        T4CON
  B:0098H.3       SYMBOL        TB8
  B:00C8H.4       SYMBOL        TCLK
  D:0088H         SYMBOL        TCON
  B:0088H.5       SYMBOL        TF0
  B:0088H.7       SYMBOL        TF1
  B:00C8H.7       SYMBOL        TF2
  D:008CH         SYMBOL        TH0
  D:008DH         SYMBOL        TH1
  D:00CDH         SYMBOL        TH2
  D:00F5H         SYMBOL        TH4
  B:0098H.1       SYMBOL        TI
  D:008AH         SYMBOL        TL0
  D:008BH         SYMBOL        TL1
  D:00CCH         SYMBOL        TL2
  D:00F4H         SYMBOL        TL4
  D:0089H         SYMBOL        TMOD
  D:0091H         SYMBOL        TMR3CN
  D:0095H         SYMBOL        TMR3H
  D:0094H         SYMBOL        TMR3L
  D:0093H         SYMBOL        TMR3RLH
BL51 BANKED LINKER/LOCATER V6.22.4.0                                                  01/10/2026  10:26:27  PAGE 16


  D:0092H         SYMBOL        TMR3RLL
  B:0088H.4       SYMBOL        TR0
  B:0088H.6       SYMBOL        TR1
  B:00C8H.2       SYMBOL        TR2
  B:00F8H.3       SYMBOL        TXBSY
  B:00F8H.6       SYMBOL        WCOL
  D:00FFH         SYMBOL        WDTCN
  D:00E1H         SYMBOL        XBR0
  D:00E2H         SYMBOL        XBR1
  D:00E3H         SYMBOL        XBR2
  C:1313H         LINE#         24
  C:1315H         LINE#         25
  C:1318H         LINE#         26
  C:131BH         LINE#         27
  C:131EH         LINE#         28
  C:1320H         LINE#         29
  C:1321H         LINE#         32
  C:1323H         LINE#         33
  C:1326H         LINE#         34
  C:1329H         LINE#         35
  C:132CH         LINE#         36
  C:132EH         LINE#         37
  C:132FH         LINE#         40
  C:1331H         LINE#         41
  C:1334H         LINE#         42
  C:1337H         LINE#         43
  C:133AH         LINE#         44
  C:133CH         LINE#         45
  C:133DH         LINE#         48
  C:133FH         LINE#         49
  C:1342H         LINE#         50
  C:1345H         LINE#         51
  C:1348H         LINE#         52
  C:134AH         LINE#         53
  C:134BH         LINE#         57
  C:134EH         LINE#         58
  C:1351H         LINE#         59
  C:1354H         LINE#         61
  C:1356H         LINE#         62
  C:1359H         LINE#         63
  C:135BH         LINE#         64
  C:135EH         LINE#         65
  C:1360H         LINE#         66
  C:1363H         LINE#         67
  C:1365H         LINE#         68
  C:1368H         LINE#         69
  C:136AH         LINE#         70
  C:136DH         LINE#         71
  C:136FH         LINE#         72
  C:1372H         LINE#         73
  C:1374H         LINE#         74
  C:1377H         LINE#         75
  C:1378H         LINE#         78
  C:137AH         LINE#         79
  C:137DH         LINE#         80
  C:137FH         LINE#         81
  C:1381H         LINE#         83
BL51 BANKED LINKER/LOCATER V6.22.4.0                                                  01/10/2026  10:26:27  PAGE 17


  C:1383H         LINE#         84
  C:1386H         LINE#         85
  C:1388H         LINE#         87
  C:138AH         LINE#         88
  C:138DH         LINE#         89
  C:138EH         LINE#         90
  C:138FH         LINE#         91
  C:1392H         LINE#         92
  C:1394H         LINE#         93
  C:1397H         LINE#         94
  C:1398H         LINE#         97
  C:139AH         LINE#         98
  C:139DH         LINE#         99
  C:139EH         LINE#         103
  C:139FH         LINE#         104
  C:13A0H         LINE#         105
  C:13A2H         LINE#         106
  C:13A5H         LINE#         107
  C:13A6H         LINE#         108
  C:13A8H         LINE#         110
  -------         ENDMOD        LCD1602

  -------         MODULE        LED6
  C:0F24H         SEGMENT       LED6
  C:0FC6H         PUBLIC        LED6_APPLYTABLE
  C:0F97H         PUBLIC        LED6_REFRESH
  B:00C0H.2       SYMBOL        AA
  B:00D0H.6       SYMBOL        AC
  D:00E0H         SYMBOL        ACC
  B:00E8H.4       SYMBOL        AD0BUSY
  B:00E8H.7       SYMBOL        AD0EN
  B:00E8H.5       SYMBOL        AD0INT
  B:00E8H.0       SYMBOL        AD0LJST
  B:00E8H.2       SYMBOL        AD0STM0
  B:00E8H.3       SYMBOL        AD0STM1
  B:00E8H.6       SYMBOL        AD0TM
  B:00E8H.1       SYMBOL        AD0WINT
  D:00BCH         SYMBOL        ADC0CF
  D:00E8H         SYMBOL        ADC0CN
  D:00C5H         SYMBOL        ADC0GTH
  D:00C4H         SYMBOL        ADC0GTL
  D:00BFH         SYMBOL        ADC0H
  D:00BEH         SYMBOL        ADC0L
  D:00C7H         SYMBOL        ADC0LTH
  D:00C6H         SYMBOL        ADC0LTL
  D:009CH         SYMBOL        ADC1
  D:00ABH         SYMBOL        ADC1CF
  D:00AAH         SYMBOL        ADC1CN
  D:00BAH         SYMBOL        AMX0CF
  D:00BBH         SYMBOL        AMX0SL
  D:00ACH         SYMBOL        AMX1SL
  D:00F0H         SYMBOL        B
  C:0F8CH         SYMBOL        BITMASK_TABLE
  N:005AH         SYMBOL        BLINK_TIMER
  N:005BH         SYMBOL        BLINK_TOGGLE
  B:00D8H.0       SYMBOL        CCF0
  B:00D8H.1       SYMBOL        CCF1
BL51 BANKED LINKER/LOCATER V6.22.4.0                                                  01/10/2026  10:26:27  PAGE 18


  B:00D8H.2       SYMBOL        CCF2
  B:00D8H.3       SYMBOL        CCF3
  B:00D8H.4       SYMBOL        CCF4
  B:00D8H.7       SYMBOL        CF
  D:008EH         SYMBOL        CKCON
  B:00C8H.0       SYMBOL        CPRL2
  D:009EH         SYMBOL        CPT0CN
  D:009FH         SYMBOL        CPT1CN
  B:00D8H.6       SYMBOL        CR
  B:00C8H.1       SYMBOL        CT2
  N:0068H         SYMBOL        CURRENT_PASS
  N:0056H         SYMBOL        CUR_FLR
  B:00D0H.7       SYMBOL        CY
  D:00D4H         SYMBOL        DAC0CN
  D:00D3H         SYMBOL        DAC0H
  D:00D2H         SYMBOL        DAC0L
  D:00D7H         SYMBOL        DAC1CN
  D:00D6H         SYMBOL        DAC1H
  D:00D5H         SYMBOL        DAC1L
  N:0067H         SYMBOL        DEBUG_ON
  D:0083H         SYMBOL        DPH
  D:0082H         SYMBOL        DPL
  B:00A8H.7       SYMBOL        EA
  D:00E6H         SYMBOL        EIE1
  D:00E7H         SYMBOL        EIE2
  D:00F6H         SYMBOL        EIP1
  D:00F7H         SYMBOL        EIP2
  N:0022H         SYMBOL        ELEV_ARRIVED
  N:0023H         SYMBOL        ELEV_CLOSE
  N:0064H         SYMBOL        ELEV_DIR
  N:0021H         SYMBOL        ELEV_RUN
  N:0020H         SYMBOL        ELEV_ST
  N:0058H         SYMBOL        ELEV_TARGET
  N:0057H         SYMBOL        ELEV_TIMER
  D:00A3H         SYMBOL        EMI0CF
  D:00AFH         SYMBOL        EMI0CN
  D:00A1H         SYMBOL        EMI0TC
  B:00C0H.6       SYMBOL        ENSMB
  B:00A8H.4       SYMBOL        ES
  B:00A8H.1       SYMBOL        ET0
  B:00A8H.3       SYMBOL        ET1
  B:00A8H.5       SYMBOL        ET2
  B:00A8H.0       SYMBOL        EX0
  B:00A8H.2       SYMBOL        EX1
  B:00C8H.3       SYMBOL        EXEN2
  B:00C8H.6       SYMBOL        EXF2
  N:0063H         SYMBOL        EXT_DN_HI
  N:0062H         SYMBOL        EXT_DN_LO
  N:005FH         SYMBOL        EXT_UP_HI
  N:005EH         SYMBOL        EXT_UP_LO
  B:00D0H.5       SYMBOL        F0
  B:00D0H.1       SYMBOL        F1
  D:00B7H         SYMBOL        FLACL
  D:00B6H         SYMBOL        FLSCL
  D:00A8H         SYMBOL        IE
  B:0088H.1       SYMBOL        IE0
  B:0088H.3       SYMBOL        IE1
BL51 BANKED LINKER/LOCATER V6.22.4.0                                                  01/10/2026  10:26:27  PAGE 19


  N:0065H         SYMBOL        INPUT_MODE
  N:005DH         SYMBOL        INT_REQ_HI
  N:005CH         SYMBOL        INT_REQ_LO
  D:00B8H         SYMBOL        IP
  B:0088H.0       SYMBOL        IT0
  B:0088H.2       SYMBOL        IT1
  C:1021H         SYMBOL        LBL_COPY
  C:101EH         SYMBOL        LBL_DEFAULT
  C:0FD6H         SYMBOL        LBL_L1
  C:0FDEH         SYMBOL        LBL_L2
  C:0FE6H         SYMBOL        LBL_L3
  C:0FEEH         SYMBOL        LBL_L4
  C:0FF6H         SYMBOL        LBL_L5
  C:0FFEH         SYMBOL        LBL_L6
  C:1006H         SYMBOL        LBL_L7
  C:100EH         SYMBOL        LBL_L8
  C:1016H         SYMBOL        LBL_L9
  C:1027H         SYMBOL        LBL_LOOP
  C:0FC5H         SYMBOL        LED6_EXIT
  B:00F8H.5       SYMBOL        MODF
  B:00F8H.1       SYMBOL        MSTEN
  N:0004H         SYMBOL        NEW_PASS_ST
  N:0059H         SYMBOL        ONE_SEC_CNT
  N:0011H         SYMBOL        OPT1_ST
  N:0012H         SYMBOL        OPT2_ST
  N:0013H         SYMBOL        OPT3_ST
  N:0001H         SYMBOL        OPT_ST
  D:00B2H         SYMBOL        OSCICN
  D:00B1H         SYMBOL        OSCXCN
  N:0066H         SYMBOL        OUT_SEL_VAL
  B:00D0H.2       SYMBOL        OV
  B:00D0H.0       SYMBOL        P
  D:0080H         SYMBOL        P0
  D:00A4H         SYMBOL        P0MDOUT
  D:0090H         SYMBOL        P1
  D:00BDH         SYMBOL        P1MDIN
  D:00A5H         SYMBOL        P1MDOUT
  D:00A0H         SYMBOL        P2
  D:00A6H         SYMBOL        P2MDOUT
  D:00B0H         SYMBOL        P3
  D:00ADH         SYMBOL        P3IF
  D:00A7H         SYMBOL        P3MDOUT
  D:0084H         SYMBOL        P4
  D:0085H         SYMBOL        P5
  D:0086H         SYMBOL        P6
  D:0096H         SYMBOL        P7
  D:00B5H         SYMBOL        P74OUT
  C:0F92H         SYMBOL        PASSWORD_TABLE
  N:006DH         SYMBOL        PASS_NEXT_ST
  N:0002H         SYMBOL        PASS_ST
  D:00D8H         SYMBOL        PCA0CN
  D:00FAH         SYMBOL        PCA0CPH0
  D:00FBH         SYMBOL        PCA0CPH1
  D:00FCH         SYMBOL        PCA0CPH2
  D:00FDH         SYMBOL        PCA0CPH3
  D:00FEH         SYMBOL        PCA0CPH4
  D:00EAH         SYMBOL        PCA0CPL0
BL51 BANKED LINKER/LOCATER V6.22.4.0                                                  01/10/2026  10:26:27  PAGE 20


  D:00EBH         SYMBOL        PCA0CPL1
  D:00ECH         SYMBOL        PCA0CPL2
  D:00EDH         SYMBOL        PCA0CPL3
  D:00EEH         SYMBOL        PCA0CPL4
  D:00DAH         SYMBOL        PCA0CPM0
  D:00DBH         SYMBOL        PCA0CPM1
  D:00DCH         SYMBOL        PCA0CPM2
  D:00DDH         SYMBOL        PCA0CPM3
  D:00DEH         SYMBOL        PCA0CPM4
  D:00F9H         SYMBOL        PCA0H
  D:00E9H         SYMBOL        PCA0L
  D:00D9H         SYMBOL        PCA0MD
  D:0087H         SYMBOL        PCON
  B:00B8H.4       SYMBOL        PS
  D:008FH         SYMBOL        PSCTL
  D:00D0H         SYMBOL        PSW
  B:00B8H.1       SYMBOL        PT0
  B:00B8H.3       SYMBOL        PT1
  B:00B8H.5       SYMBOL        PT2
  B:00B8H.0       SYMBOL        PX0
  B:00B8H.2       SYMBOL        PX1
  B:0098H.2       SYMBOL        RB8
  D:00CBH         SYMBOL        RCAP2H
  D:00CAH         SYMBOL        RCAP2L
  D:00E5H         SYMBOL        RCAP4H
  D:00E4H         SYMBOL        RCAP4L
  B:00C8H.5       SYMBOL        RCLK
  D:00D1H         SYMBOL        REF0CN
  B:0098H.4       SYMBOL        REN
  N:0003H         SYMBOL        RESET_CHOICE_ST
  B:0098H.0       SYMBOL        RI
  B:00D0H.3       SYMBOL        RS0
  B:00D0H.4       SYMBOL        RS1
  D:00EFH         SYMBOL        RSTSRC
  N:0000H         SYMBOL        RUN_ST
  B:00F8H.4       SYMBOL        RXOVRN
  D:00A9H         SYMBOL        SADDR0
  D:00F3H         SYMBOL        SADDR1
  D:00B9H         SYMBOL        SADEN0
  D:00AEH         SYMBOL        SADEN1
  D:0099H         SYMBOL        SBUF0
  D:00F2H         SYMBOL        SBUF1
  D:0098H         SYMBOL        SCON0
  D:00F1H         SYMBOL        SCON1
  C:0F66H         SYMBOL        SEG_TABLE
  B:00C0H.3       SYMBOL        SI
  B:00F8H.2       SYMBOL        SLVSEL
  B:0098H.7       SYMBOL        SM0
  B:0098H.6       SYMBOL        SM1
  B:0098H.5       SYMBOL        SM2
  D:00C3H         SYMBOL        SMB0ADR
  D:00C0H         SYMBOL        SMB0CN
  D:00CFH         SYMBOL        SMB0CR
  D:00C2H         SYMBOL        SMB0DAT
  D:00C1H         SYMBOL        SMB0STA
  B:00C0H.1       SYMBOL        SMBFTE
  B:00C0H.0       SYMBOL        SMBTOE
BL51 BANKED LINKER/LOCATER V6.22.4.0                                                  01/10/2026  10:26:27  PAGE 21


  D:0081H         SYMBOL        SP
  D:009AH         SYMBOL        SPI0CFG
  D:009DH         SYMBOL        SPI0CKR
  D:00F8H         SYMBOL        SPI0CN
  D:009BH         SYMBOL        SPI0DAT
  B:00F8H.0       SYMBOL        SPIEN
  B:00F8H.7       SYMBOL        SPIF
  B:00C0H.5       SYMBOL        STA
  B:00C0H.4       SYMBOL        STO
  D:00C8H         SYMBOL        T2CON
  D:00C9H         SYMBOL        T4CON
  C:0F60H         SYMBOL        TABLE_DISPLAY_ALL_OFF
  C:0F24H         SYMBOL        TABLE_DISPLAY_INIT_BLANK
  C:0F2AH         SYMBOL        TABLE_DISPLAY_RUN_BLANK
  C:0F30H         SYMBOL        TABLE_MENU_MAIN_OPT
  C:0F3CH         SYMBOL        TABLE_OPT1_PROMPT
  C:0F42H         SYMBOL        TABLE_OPT2_PROMPT
  C:0F48H         SYMBOL        TABLE_OPT3_PROMPT
  C:0F36H         SYMBOL        TABLE_OPT_ERR011
  C:0F54H         SYMBOL        TABLE_PASS_ERROR_FALSEX
  C:0F5AH         SYMBOL        TABLE_PASS_ERROR_LOCKED
  C:0F4EH         SYMBOL        TABLE_PASS_PROMPT
  B:0098H.3       SYMBOL        TB8
  B:00C8H.4       SYMBOL        TCLK
  D:0088H         SYMBOL        TCON
  B:0088H.5       SYMBOL        TF0
  B:0088H.7       SYMBOL        TF1
  B:00C8H.7       SYMBOL        TF2
  D:008CH         SYMBOL        TH0
  D:008DH         SYMBOL        TH1
  D:00CDH         SYMBOL        TH2
  D:00F5H         SYMBOL        TH4
  B:0098H.1       SYMBOL        TI
  D:008AH         SYMBOL        TL0
  D:008BH         SYMBOL        TL1
  D:00CCH         SYMBOL        TL2
  D:00F4H         SYMBOL        TL4
  D:0089H         SYMBOL        TMOD
  D:0091H         SYMBOL        TMR3CN
  D:0095H         SYMBOL        TMR3H
  D:0094H         SYMBOL        TMR3L
  D:0093H         SYMBOL        TMR3RLH
  D:0092H         SYMBOL        TMR3RLL
  B:0088H.4       SYMBOL        TR0
  B:0088H.6       SYMBOL        TR1
  B:00C8H.2       SYMBOL        TR2
  B:00F8H.3       SYMBOL        TXBSY
  B:00F8H.6       SYMBOL        WCOL
  D:00FFH         SYMBOL        WDTCN
  D:00E1H         SYMBOL        XBR0
  D:00E2H         SYMBOL        XBR1
  D:00E3H         SYMBOL        XBR2
  C:0F97H         LINE#         14
  C:0F9AH         LINE#         15
  C:0F9DH         LINE#         17
  C:0F9FH         LINE#         18
  C:0FA0H         LINE#         19
BL51 BANKED LINKER/LOCATER V6.22.4.0                                                  01/10/2026  10:26:27  PAGE 22


  C:0FA2H         LINE#         20
  C:0FA3H         LINE#         21
  C:0FA4H         LINE#         22
  C:0FA6H         LINE#         24
  C:0FA9H         LINE#         25
  C:0FABH         LINE#         26
  C:0FACH         LINE#         27
  C:0FAEH         LINE#         29
  C:0FB1H         LINE#         30
  C:0FB2H         LINE#         31
  C:0FB3H         LINE#         32
  C:0FB4H         LINE#         33
  C:0FB5H         LINE#         35
  C:0FB7H         LINE#         36
  C:0FB9H         LINE#         38
  C:0FBBH         LINE#         40
  C:0FBDH         LINE#         41
  C:0FBFH         LINE#         42
  C:0FC2H         LINE#         43
  C:0FC5H         LINE#         46
  C:0FC6H         LINE#         62
  C:0FC8H         LINE#         63
  C:0FCAH         LINE#         64
  C:0FCCH         LINE#         65
  C:0FCEH         LINE#         68
  C:0FD1H         LINE#         69
  C:0FD4H         LINE#         70
  C:0FD6H         LINE#         71
  C:0FD9H         LINE#         72
  C:0FDCH         LINE#         73
  C:0FDEH         LINE#         74
  C:0FE1H         LINE#         75
  C:0FE4H         LINE#         76
  C:0FE6H         LINE#         77
  C:0FE9H         LINE#         78
  C:0FECH         LINE#         79
  C:0FEEH         LINE#         80
  C:0FF1H         LINE#         81
  C:0FF4H         LINE#         82
  C:0FF6H         LINE#         83
  C:0FF9H         LINE#         84
  C:0FFCH         LINE#         85
  C:0FFEH         LINE#         86
  C:1001H         LINE#         87
  C:1004H         LINE#         88
  C:1006H         LINE#         89
  C:1009H         LINE#         90
  C:100CH         LINE#         91
  C:100EH         LINE#         92
  C:1011H         LINE#         93
  C:1014H         LINE#         94
  C:1016H         LINE#         95
  C:1019H         LINE#         96
  C:101CH         LINE#         97
  C:101EH         LINE#         100
  C:1021H         LINE#         103
  C:1023H         LINE#         104
BL51 BANKED LINKER/LOCATER V6.22.4.0                                                  01/10/2026  10:26:27  PAGE 23


  C:1025H         LINE#         105
  C:1027H         LINE#         107
  C:1028H         LINE#         108
  C:1029H         LINE#         109
  C:102AH         LINE#         110
  C:102BH         LINE#         111
  C:102CH         LINE#         112
  C:102DH         LINE#         113
  C:1030H         LINE#         114
  C:1032H         LINE#         116
  C:1034H         LINE#         117
  C:1036H         LINE#         118
  C:1038H         LINE#         119
  C:103AH         LINE#         120
  -------         ENDMOD        LED6

  -------         MODULE        SINGER
  C:0D93H         SEGMENT       SINGER_SEGMENT
  C:0D93H         PUBLIC        SINGER_INIT
  C:0DDFH         PUBLIC        SINGER_PLAY
  C:0D97H         PUBLIC        SINGER_PLAYNOTE
  B:00C0H.2       SYMBOL        AA
  B:00D0H.6       SYMBOL        AC
  D:00E0H         SYMBOL        ACC
  B:00E8H.4       SYMBOL        AD0BUSY
  B:00E8H.7       SYMBOL        AD0EN
  B:00E8H.5       SYMBOL        AD0INT
  B:00E8H.0       SYMBOL        AD0LJST
  B:00E8H.2       SYMBOL        AD0STM0
  B:00E8H.3       SYMBOL        AD0STM1
  B:00E8H.6       SYMBOL        AD0TM
  B:00E8H.1       SYMBOL        AD0WINT
  D:00BCH         SYMBOL        ADC0CF
  D:00E8H         SYMBOL        ADC0CN
  D:00C5H         SYMBOL        ADC0GTH
  D:00C4H         SYMBOL        ADC0GTL
  D:00BFH         SYMBOL        ADC0H
  D:00BEH         SYMBOL        ADC0L
  D:00C7H         SYMBOL        ADC0LTH
  D:00C6H         SYMBOL        ADC0LTL
  D:009CH         SYMBOL        ADC1
  D:00ABH         SYMBOL        ADC1CF
  D:00AAH         SYMBOL        ADC1CN
  D:00BAH         SYMBOL        AMX0CF
  D:00BBH         SYMBOL        AMX0SL
  D:00ACH         SYMBOL        AMX1SL
  D:00F0H         SYMBOL        B
  B:00D8H.0       SYMBOL        CCF0
  B:00D8H.1       SYMBOL        CCF1
  B:00D8H.2       SYMBOL        CCF2
  B:00D8H.3       SYMBOL        CCF3
  B:00D8H.4       SYMBOL        CCF4
  B:00D8H.7       SYMBOL        CF
  D:008EH         SYMBOL        CKCON
  B:00C8H.0       SYMBOL        CPRL2
  D:009EH         SYMBOL        CPT0CN
  D:009FH         SYMBOL        CPT1CN
BL51 BANKED LINKER/LOCATER V6.22.4.0                                                  01/10/2026  10:26:27  PAGE 24


  B:00D8H.6       SYMBOL        CR
  B:00C8H.1       SYMBOL        CT2
  B:00D0H.7       SYMBOL        CY
  D:00D4H         SYMBOL        DAC0CN
  D:00D3H         SYMBOL        DAC0H
  D:00D2H         SYMBOL        DAC0L
  D:00D7H         SYMBOL        DAC1CN
  D:00D6H         SYMBOL        DAC1H
  D:00D5H         SYMBOL        DAC1L
  D:0083H         SYMBOL        DPH
  D:0082H         SYMBOL        DPL
  B:00A8H.7       SYMBOL        EA
  D:00E6H         SYMBOL        EIE1
  D:00E7H         SYMBOL        EIE2
  D:00F6H         SYMBOL        EIP1
  D:00F7H         SYMBOL        EIP2
  D:00A3H         SYMBOL        EMI0CF
  D:00AFH         SYMBOL        EMI0CN
  D:00A1H         SYMBOL        EMI0TC
  B:00C0H.6       SYMBOL        ENSMB
  B:00A8H.4       SYMBOL        ES
  B:00A8H.1       SYMBOL        ET0
  B:00A8H.3       SYMBOL        ET1
  B:00A8H.5       SYMBOL        ET2
  B:00A8H.0       SYMBOL        EX0
  B:00A8H.2       SYMBOL        EX1
  B:00C8H.3       SYMBOL        EXEN2
  B:00C8H.6       SYMBOL        EXF2
  B:00D0H.5       SYMBOL        F0
  B:00D0H.1       SYMBOL        F1
  D:00B7H         SYMBOL        FLACL
  D:00B6H         SYMBOL        FLSCL
  D:00A8H         SYMBOL        IE
  B:0088H.1       SYMBOL        IE0
  B:0088H.3       SYMBOL        IE1
  D:00B8H         SYMBOL        IP
  B:0088H.0       SYMBOL        IT0
  B:0088H.2       SYMBOL        IT1
  B:00F8H.5       SYMBOL        MODF
  B:00F8H.1       SYMBOL        MSTEN
  C:0E3BH         SYMBOL        NOTE_RELOAD_TABLE
  C:0E2DH         SYMBOL        NO_WAIT
  D:00B2H         SYMBOL        OSCICN
  D:00B1H         SYMBOL        OSCXCN
  B:00D0H.2       SYMBOL        OV
  B:00D0H.0       SYMBOL        P
  D:0080H         SYMBOL        P0
  D:00A4H         SYMBOL        P0MDOUT
  D:0090H         SYMBOL        P1
  D:00BDH         SYMBOL        P1MDIN
  D:00A5H         SYMBOL        P1MDOUT
  D:00A0H         SYMBOL        P2
  D:00A6H         SYMBOL        P2MDOUT
  D:00B0H         SYMBOL        P3
  D:00ADH         SYMBOL        P3IF
  D:00A7H         SYMBOL        P3MDOUT
  D:0084H         SYMBOL        P4
BL51 BANKED LINKER/LOCATER V6.22.4.0                                                  01/10/2026  10:26:27  PAGE 25


  D:0085H         SYMBOL        P5
  D:0086H         SYMBOL        P6
  D:0096H         SYMBOL        P7
  D:00B5H         SYMBOL        P74OUT
  D:00D8H         SYMBOL        PCA0CN
  D:00FAH         SYMBOL        PCA0CPH0
  D:00FBH         SYMBOL        PCA0CPH1
  D:00FCH         SYMBOL        PCA0CPH2
  D:00FDH         SYMBOL        PCA0CPH3
  D:00FEH         SYMBOL        PCA0CPH4
  D:00EAH         SYMBOL        PCA0CPL0
  D:00EBH         SYMBOL        PCA0CPL1
  D:00ECH         SYMBOL        PCA0CPL2
  D:00EDH         SYMBOL        PCA0CPL3
  D:00EEH         SYMBOL        PCA0CPL4
  D:00DAH         SYMBOL        PCA0CPM0
  D:00DBH         SYMBOL        PCA0CPM1
  D:00DCH         SYMBOL        PCA0CPM2
  D:00DDH         SYMBOL        PCA0CPM3
  D:00DEH         SYMBOL        PCA0CPM4
  D:00F9H         SYMBOL        PCA0H
  D:00E9H         SYMBOL        PCA0L
  D:00D9H         SYMBOL        PCA0MD
  D:0087H         SYMBOL        PCON
  C:0E0EH         SYMBOL        PLAY_NOTE_REST
  B:00B8H.4       SYMBOL        PS
  D:008FH         SYMBOL        PSCTL
  D:00D0H         SYMBOL        PSW
  B:00B8H.1       SYMBOL        PT0
  B:00B8H.3       SYMBOL        PT1
  B:00B8H.5       SYMBOL        PT2
  B:00B8H.0       SYMBOL        PX0
  B:00B8H.2       SYMBOL        PX1
  B:0098H.2       SYMBOL        RB8
  D:00CBH         SYMBOL        RCAP2H
  D:00CAH         SYMBOL        RCAP2L
  D:00E5H         SYMBOL        RCAP4H
  D:00E4H         SYMBOL        RCAP4L
  B:00C8H.5       SYMBOL        RCLK
  C:0DEEH         SYMBOL        READ_DURATION
  D:00D1H         SYMBOL        REF0CN
  B:0098H.4       SYMBOL        REN
  B:0098H.0       SYMBOL        RI
  B:00D0H.3       SYMBOL        RS0
  B:00D0H.4       SYMBOL        RS1
  D:00EFH         SYMBOL        RSTSRC
  B:00F8H.4       SYMBOL        RXOVRN
  D:00A9H         SYMBOL        SADDR0
  D:00F3H         SYMBOL        SADDR1
  D:00B9H         SYMBOL        SADEN0
  D:00AEH         SYMBOL        SADEN1
  D:0099H         SYMBOL        SBUF0
  D:00F2H         SYMBOL        SBUF1
  D:0098H         SYMBOL        SCON0
  D:00F1H         SYMBOL        SCON1
  B:00C0H.3       SYMBOL        SI
  C:0E33H         SYMBOL        SINGER_DONE
BL51 BANKED LINKER/LOCATER V6.22.4.0                                                  01/10/2026  10:26:27  PAGE 26


  C:0DE6H         SYMBOL        SINGER_LOOP
  B:00F8H.2       SYMBOL        SLVSEL
  B:0098H.7       SYMBOL        SM0
  B:0098H.6       SYMBOL        SM1
  B:0098H.5       SYMBOL        SM2
  D:00C3H         SYMBOL        SMB0ADR
  D:00C0H         SYMBOL        SMB0CN
  D:00CFH         SYMBOL        SMB0CR
  D:00C2H         SYMBOL        SMB0DAT
  D:00C1H         SYMBOL        SMB0STA
  B:00C0H.1       SYMBOL        SMBFTE
  B:00C0H.0       SYMBOL        SMBTOE
  C:0E59H         SYMBOL        SONG_TABLE
  D:0081H         SYMBOL        SP
  D:009AH         SYMBOL        SPI0CFG
  D:009DH         SYMBOL        SPI0CKR
  D:00F8H         SYMBOL        SPI0CN
  D:009BH         SYMBOL        SPI0DAT
  B:00F8H.0       SYMBOL        SPIEN
  B:00F8H.7       SYMBOL        SPIF
  C:0DA3H         SYMBOL        SPN_CHECK_NM1
  C:0DAAH         SYMBOL        SPN_CHECK_POS
  C:0DADH         SYMBOL        SPN_LE8
  C:0DB2H         SYMBOL        SPN_PLAY
  C:0DDAH         SYMBOL        SPN_RET
  B:00C0H.5       SYMBOL        STA
  B:00C0H.4       SYMBOL        STO
  D:00C8H         SYMBOL        T2CON
  D:00C9H         SYMBOL        T4CON
  B:0098H.3       SYMBOL        TB8
  B:00C8H.4       SYMBOL        TCLK
  D:0088H         SYMBOL        TCON
  B:0088H.5       SYMBOL        TF0
  B:0088H.7       SYMBOL        TF1
  B:00C8H.7       SYMBOL        TF2
  D:008CH         SYMBOL        TH0
  D:008DH         SYMBOL        TH1
  D:00CDH         SYMBOL        TH2
  D:00F5H         SYMBOL        TH4
  B:0098H.1       SYMBOL        TI
  D:008AH         SYMBOL        TL0
  D:008BH         SYMBOL        TL1
  D:00CCH         SYMBOL        TL2
  D:00F4H         SYMBOL        TL4
  D:0089H         SYMBOL        TMOD
  D:0091H         SYMBOL        TMR3CN
  D:0095H         SYMBOL        TMR3H
  D:0094H         SYMBOL        TMR3L
  D:0093H         SYMBOL        TMR3RLH
  D:0092H         SYMBOL        TMR3RLL
  B:0088H.4       SYMBOL        TR0
  B:0088H.6       SYMBOL        TR1
  B:00C8H.2       SYMBOL        TR2
  B:00F8H.3       SYMBOL        TXBSY
  C:0E11H         SYMBOL        WAIT_DURATION
  C:0E14H         SYMBOL        WAIT_LOOP
  B:00F8H.6       SYMBOL        WCOL
BL51 BANKED LINKER/LOCATER V6.22.4.0                                                  01/10/2026  10:26:27  PAGE 27


  D:00FFH         SYMBOL        WDTCN
  D:00E1H         SYMBOL        XBR0
  D:00E2H         SYMBOL        XBR1
  D:00E3H         SYMBOL        XBR2
  C:0D93H         LINE#         15
  C:0D96H         LINE#         16
  C:0D97H         LINE#         19
  C:0D99H         LINE#         20
  C:0D9BH         LINE#         22
  C:0D9CH         LINE#         23
  C:0D9FH         LINE#         25
  C:0DA1H         LINE#         26
  C:0DA3H         LINE#         29
  C:0DA6H         LINE#         31
  C:0DA8H         LINE#         32
  C:0DAAH         LINE#         36
  C:0DADH         LINE#         38
  C:0DAFH         LINE#         41
  C:0DB1H         LINE#         44
  C:0DB2H         LINE#         48
  C:0DB3H         LINE#         49
  C:0DB4H         LINE#         50
  C:0DB5H         LINE#         51
  C:0DB6H         LINE#         54
  C:0DB8H         LINE#         55
  C:0DBAH         LINE#         56
  C:0DBDH         LINE#         59
  C:0DBEH         LINE#         60
  C:0DBFH         LINE#         63
  C:0DC0H         LINE#         64
  C:0DC1H         LINE#         65
  C:0DC2H         LINE#         66
  C:0DC3H         LINE#         68
  C:0DC5H         LINE#         69
  C:0DC7H         LINE#         72
  C:0DCAH         LINE#         73
  C:0DCDH         LINE#         75
  C:0DCFH         LINE#         76
  C:0DD2H         LINE#         77
  C:0DD4H         LINE#         78
  C:0DD7H         LINE#         80
  C:0DDAH         LINE#         83
  C:0DDCH         LINE#         84
  C:0DDEH         LINE#         85
  C:0DDFH         LINE#         88
  C:0DE1H         LINE#         89
  C:0DE3H         LINE#         91
  C:0DE6H         LINE#         95
  C:0DE7H         LINE#         96
  C:0DE8H         LINE#         97
  C:0DE9H         LINE#         100
  C:0DECH         LINE#         101
  C:0DEEH         LINE#         104
  C:0DEFH         LINE#         105
  C:0DF0H         LINE#         106
  C:0DF1H         LINE#         107
  C:0DF2H         LINE#         108
BL51 BANKED LINKER/LOCATER V6.22.4.0                                                  01/10/2026  10:26:27  PAGE 28


  C:0DF3H         LINE#         111
  C:0DF5H         LINE#         112
  C:0DF7H         LINE#         115
  C:0DF8H         LINE#         116
  C:0DFAH         LINE#         119
  C:0DFBH         LINE#         120
  C:0DFCH         LINE#         121
  C:0DFDH         LINE#         123
  C:0E00H         LINE#         126
  C:0E01H         LINE#         127
  C:0E02H         LINE#         130
  C:0E03H         LINE#         131
  C:0E04H         LINE#         132
  C:0E05H         LINE#         133
  C:0E06H         LINE#         136
  C:0E09H         LINE#         137
  C:0E0CH         LINE#         138
  C:0E0EH         LINE#         141
  C:0E11H         LINE#         147
  C:0E12H         LINE#         148
  C:0E14H         LINE#         151
  C:0E16H         LINE#         152
  C:0E18H         LINE#         153
  C:0E1BH         LINE#         154
  C:0E1DH         LINE#         155
  C:0E20H         LINE#         156
  C:0E22H         LINE#         157
  C:0E23H         LINE#         158
  C:0E25H         LINE#         161
  C:0E28H         LINE#         162
  C:0E2AH         LINE#         163
  C:0E2DH         LINE#         167
  C:0E2FH         LINE#         168
  C:0E31H         LINE#         170
  C:0E33H         LINE#         173
  C:0E35H         LINE#         174
  C:0E37H         LINE#         175
  C:0E3AH         LINE#         176
  -------         ENDMOD        SINGER

  -------         MODULE        BUZZER
  C:14A4H         SEGMENT       BUZZER_SEGMENT
  C:14A4H         PUBLIC        BUZZER_INIT
  C:14B0H         PUBLIC        BUZZER_SET_FREQUENCY
  C:14A8H         PUBLIC        BUZZER_START
  C:14ACH         PUBLIC        BUZZER_STOP
  B:00C0H.2       SYMBOL        AA
  B:00D0H.6       SYMBOL        AC
  D:00E0H         SYMBOL        ACC
  B:00E8H.4       SYMBOL        AD0BUSY
  B:00E8H.7       SYMBOL        AD0EN
  B:00E8H.5       SYMBOL        AD0INT
  B:00E8H.0       SYMBOL        AD0LJST
  B:00E8H.2       SYMBOL        AD0STM0
  B:00E8H.3       SYMBOL        AD0STM1
  B:00E8H.6       SYMBOL        AD0TM
  B:00E8H.1       SYMBOL        AD0WINT
BL51 BANKED LINKER/LOCATER V6.22.4.0                                                  01/10/2026  10:26:27  PAGE 29


  D:00BCH         SYMBOL        ADC0CF
  D:00E8H         SYMBOL        ADC0CN
  D:00C5H         SYMBOL        ADC0GTH
  D:00C4H         SYMBOL        ADC0GTL
  D:00BFH         SYMBOL        ADC0H
  D:00BEH         SYMBOL        ADC0L
  D:00C7H         SYMBOL        ADC0LTH
  D:00C6H         SYMBOL        ADC0LTL
  D:009CH         SYMBOL        ADC1
  D:00ABH         SYMBOL        ADC1CF
  D:00AAH         SYMBOL        ADC1CN
  D:00BAH         SYMBOL        AMX0CF
  D:00BBH         SYMBOL        AMX0SL
  D:00ACH         SYMBOL        AMX1SL
  D:00F0H         SYMBOL        B
  B:00D8H.0       SYMBOL        CCF0
  B:00D8H.1       SYMBOL        CCF1
  B:00D8H.2       SYMBOL        CCF2
  B:00D8H.3       SYMBOL        CCF3
  B:00D8H.4       SYMBOL        CCF4
  B:00D8H.7       SYMBOL        CF
  D:008EH         SYMBOL        CKCON
  B:00C8H.0       SYMBOL        CPRL2
  D:009EH         SYMBOL        CPT0CN
  D:009FH         SYMBOL        CPT1CN
  B:00D8H.6       SYMBOL        CR
  B:00C8H.1       SYMBOL        CT2
  B:00D0H.7       SYMBOL        CY
  D:00D4H         SYMBOL        DAC0CN
  D:00D3H         SYMBOL        DAC0H
  D:00D2H         SYMBOL        DAC0L
  D:00D7H         SYMBOL        DAC1CN
  D:00D6H         SYMBOL        DAC1H
  D:00D5H         SYMBOL        DAC1L
  D:0083H         SYMBOL        DPH
  D:0082H         SYMBOL        DPL
  B:00A8H.7       SYMBOL        EA
  D:00E6H         SYMBOL        EIE1
  D:00E7H         SYMBOL        EIE2
  D:00F6H         SYMBOL        EIP1
  D:00F7H         SYMBOL        EIP2
  D:00A3H         SYMBOL        EMI0CF
  D:00AFH         SYMBOL        EMI0CN
  D:00A1H         SYMBOL        EMI0TC
  B:00C0H.6       SYMBOL        ENSMB
  B:00A8H.4       SYMBOL        ES
  B:00A8H.1       SYMBOL        ET0
  B:00A8H.3       SYMBOL        ET1
  B:00A8H.5       SYMBOL        ET2
  B:00A8H.0       SYMBOL        EX0
  B:00A8H.2       SYMBOL        EX1
  B:00C8H.3       SYMBOL        EXEN2
  B:00C8H.6       SYMBOL        EXF2
  B:00D0H.5       SYMBOL        F0
  B:00D0H.1       SYMBOL        F1
  D:00B7H         SYMBOL        FLACL
  D:00B6H         SYMBOL        FLSCL
BL51 BANKED LINKER/LOCATER V6.22.4.0                                                  01/10/2026  10:26:27  PAGE 30


  D:00A8H         SYMBOL        IE
  B:0088H.1       SYMBOL        IE0
  B:0088H.3       SYMBOL        IE1
  D:00B8H         SYMBOL        IP
  B:0088H.0       SYMBOL        IT0
  B:0088H.2       SYMBOL        IT1
  B:00F8H.5       SYMBOL        MODF
  B:00F8H.1       SYMBOL        MSTEN
  D:00B2H         SYMBOL        OSCICN
  D:00B1H         SYMBOL        OSCXCN
  B:00D0H.2       SYMBOL        OV
  B:00D0H.0       SYMBOL        P
  D:0080H         SYMBOL        P0
  D:00A4H         SYMBOL        P0MDOUT
  D:0090H         SYMBOL        P1
  D:00BDH         SYMBOL        P1MDIN
  D:00A5H         SYMBOL        P1MDOUT
  D:00A0H         SYMBOL        P2
  D:00A6H         SYMBOL        P2MDOUT
  D:00B0H         SYMBOL        P3
  D:00ADH         SYMBOL        P3IF
  D:00A7H         SYMBOL        P3MDOUT
  D:0084H         SYMBOL        P4
  D:0085H         SYMBOL        P5
  D:0086H         SYMBOL        P6
  D:0096H         SYMBOL        P7
  D:00B5H         SYMBOL        P74OUT
  D:00D8H         SYMBOL        PCA0CN
  D:00FAH         SYMBOL        PCA0CPH0
  D:00FBH         SYMBOL        PCA0CPH1
  D:00FCH         SYMBOL        PCA0CPH2
  D:00FDH         SYMBOL        PCA0CPH3
  D:00FEH         SYMBOL        PCA0CPH4
  D:00EAH         SYMBOL        PCA0CPL0
  D:00EBH         SYMBOL        PCA0CPL1
  D:00ECH         SYMBOL        PCA0CPL2
  D:00EDH         SYMBOL        PCA0CPL3
  D:00EEH         SYMBOL        PCA0CPL4
  D:00DAH         SYMBOL        PCA0CPM0
  D:00DBH         SYMBOL        PCA0CPM1
  D:00DCH         SYMBOL        PCA0CPM2
  D:00DDH         SYMBOL        PCA0CPM3
  D:00DEH         SYMBOL        PCA0CPM4
  D:00F9H         SYMBOL        PCA0H
  D:00E9H         SYMBOL        PCA0L
  D:00D9H         SYMBOL        PCA0MD
  D:0087H         SYMBOL        PCON
  B:00B8H.4       SYMBOL        PS
  D:008FH         SYMBOL        PSCTL
  D:00D0H         SYMBOL        PSW
  B:00B8H.1       SYMBOL        PT0
  B:00B8H.3       SYMBOL        PT1
  B:00B8H.5       SYMBOL        PT2
  B:00B8H.0       SYMBOL        PX0
  B:00B8H.2       SYMBOL        PX1
  B:0098H.2       SYMBOL        RB8
  D:00CBH         SYMBOL        RCAP2H
BL51 BANKED LINKER/LOCATER V6.22.4.0                                                  01/10/2026  10:26:27  PAGE 31


  D:00CAH         SYMBOL        RCAP2L
  D:00E5H         SYMBOL        RCAP4H
  D:00E4H         SYMBOL        RCAP4L
  B:00C8H.5       SYMBOL        RCLK
  D:00D1H         SYMBOL        REF0CN
  B:0098H.4       SYMBOL        REN
  B:0098H.0       SYMBOL        RI
  B:00D0H.3       SYMBOL        RS0
  B:00D0H.4       SYMBOL        RS1
  D:00EFH         SYMBOL        RSTSRC
  B:00F8H.4       SYMBOL        RXOVRN
  D:00A9H         SYMBOL        SADDR0
  D:00F3H         SYMBOL        SADDR1
  D:00B9H         SYMBOL        SADEN0
  D:00AEH         SYMBOL        SADEN1
  D:0099H         SYMBOL        SBUF0
  D:00F2H         SYMBOL        SBUF1
  D:0098H         SYMBOL        SCON0
  D:00F1H         SYMBOL        SCON1
  B:00C0H.3       SYMBOL        SI
  B:00F8H.2       SYMBOL        SLVSEL
  B:0098H.7       SYMBOL        SM0
  B:0098H.6       SYMBOL        SM1
  B:0098H.5       SYMBOL        SM2
  D:00C3H         SYMBOL        SMB0ADR
  D:00C0H         SYMBOL        SMB0CN
  D:00CFH         SYMBOL        SMB0CR
  D:00C2H         SYMBOL        SMB0DAT
  D:00C1H         SYMBOL        SMB0STA
  B:00C0H.1       SYMBOL        SMBFTE
  B:00C0H.0       SYMBOL        SMBTOE
  D:0081H         SYMBOL        SP
  D:009AH         SYMBOL        SPI0CFG
  D:009DH         SYMBOL        SPI0CKR
  D:00F8H         SYMBOL        SPI0CN
  D:009BH         SYMBOL        SPI0DAT
  B:00F8H.0       SYMBOL        SPIEN
  B:00F8H.7       SYMBOL        SPIF
  B:00C0H.5       SYMBOL        STA
  B:00C0H.4       SYMBOL        STO
  D:00C8H         SYMBOL        T2CON
  D:00C9H         SYMBOL        T4CON
  B:0098H.3       SYMBOL        TB8
  B:00C8H.4       SYMBOL        TCLK
  D:0088H         SYMBOL        TCON
  B:0088H.5       SYMBOL        TF0
  B:0088H.7       SYMBOL        TF1
  B:00C8H.7       SYMBOL        TF2
  D:008CH         SYMBOL        TH0
  D:008DH         SYMBOL        TH1
  D:00CDH         SYMBOL        TH2
  D:00F5H         SYMBOL        TH4
  B:0098H.1       SYMBOL        TI
  D:008AH         SYMBOL        TL0
  D:008BH         SYMBOL        TL1
  D:00CCH         SYMBOL        TL2
  D:00F4H         SYMBOL        TL4
BL51 BANKED LINKER/LOCATER V6.22.4.0                                                  01/10/2026  10:26:27  PAGE 32


  D:0089H         SYMBOL        TMOD
  D:0091H         SYMBOL        TMR3CN
  D:0095H         SYMBOL        TMR3H
  D:0094H         SYMBOL        TMR3L
  D:0093H         SYMBOL        TMR3RLH
  D:0092H         SYMBOL        TMR3RLL
  B:0088H.4       SYMBOL        TR0
  B:0088H.6       SYMBOL        TR1
  B:00C8H.2       SYMBOL        TR2
  B:00F8H.3       SYMBOL        TXBSY
  B:00F8H.6       SYMBOL        WCOL
  D:00FFH         SYMBOL        WDTCN
  D:00E1H         SYMBOL        XBR0
  D:00E2H         SYMBOL        XBR1
  D:00E3H         SYMBOL        XBR2
  C:14A4H         LINE#         15
  C:14A7H         LINE#         16
  C:14A8H         LINE#         19
  C:14ABH         LINE#         20
  C:14ACH         LINE#         23
  C:14AFH         LINE#         24
  C:14B0H         LINE#         27
  C:14B3H         LINE#         28
  -------         ENDMOD        BUZZER

  -------         MODULE        DELAY
  C:1491H         SEGMENT       DELAY
  C:1491H         PUBLIC        DELAY_MS
  C:1495H         SYMBOL        L_D1
  C:1497H         SYMBOL        L_D2
  C:1499H         SYMBOL        L_D3
  C:1491H         LINE#         7
  C:1493H         LINE#         8
  C:1495H         LINE#         9
  C:1497H         LINE#         10
  C:1499H         LINE#         11
  C:149BH         LINE#         12
  C:149DH         LINE#         13
  C:149FH         LINE#         14
  C:14A1H         LINE#         15
  C:14A3H         LINE#         16
  -------         ENDMOD        DELAY

  -------         MODULE        KEYBOARD
  C:103BH         SEGMENT       KBD
  C:103BH         PUBLIC        MATRIXKEY
  B:00C0H.2       SYMBOL        AA
  B:00D0H.6       SYMBOL        AC
  D:00E0H         SYMBOL        ACC
  B:00E8H.4       SYMBOL        AD0BUSY
  B:00E8H.7       SYMBOL        AD0EN
  B:00E8H.5       SYMBOL        AD0INT
  B:00E8H.0       SYMBOL        AD0LJST
  B:00E8H.2       SYMBOL        AD0STM0
  B:00E8H.3       SYMBOL        AD0STM1
  B:00E8H.6       SYMBOL        AD0TM
  B:00E8H.1       SYMBOL        AD0WINT
BL51 BANKED LINKER/LOCATER V6.22.4.0                                                  01/10/2026  10:26:27  PAGE 33


  D:00BCH         SYMBOL        ADC0CF
  D:00E8H         SYMBOL        ADC0CN
  D:00C5H         SYMBOL        ADC0GTH
  D:00C4H         SYMBOL        ADC0GTL
  D:00BFH         SYMBOL        ADC0H
  D:00BEH         SYMBOL        ADC0L
  D:00C7H         SYMBOL        ADC0LTH
  D:00C6H         SYMBOL        ADC0LTL
  D:009CH         SYMBOL        ADC1
  D:00ABH         SYMBOL        ADC1CF
  D:00AAH         SYMBOL        ADC1CN
  D:00BAH         SYMBOL        AMX0CF
  D:00BBH         SYMBOL        AMX0SL
  D:00ACH         SYMBOL        AMX1SL
  D:00F0H         SYMBOL        B
  B:00D8H.0       SYMBOL        CCF0
  B:00D8H.1       SYMBOL        CCF1
  B:00D8H.2       SYMBOL        CCF2
  B:00D8H.3       SYMBOL        CCF3
  B:00D8H.4       SYMBOL        CCF4
  B:00D8H.7       SYMBOL        CF
  D:008EH         SYMBOL        CKCON
  B:00C8H.0       SYMBOL        CPRL2
  D:009EH         SYMBOL        CPT0CN
  D:009FH         SYMBOL        CPT1CN
  B:00D8H.6       SYMBOL        CR
  B:00C8H.1       SYMBOL        CT2
  B:00D0H.7       SYMBOL        CY
  D:00D4H         SYMBOL        DAC0CN
  D:00D3H         SYMBOL        DAC0H
  D:00D2H         SYMBOL        DAC0L
  D:00D7H         SYMBOL        DAC1CN
  D:00D6H         SYMBOL        DAC1H
  D:00D5H         SYMBOL        DAC1L
  D:0083H         SYMBOL        DPH
  D:0082H         SYMBOL        DPL
  B:00A8H.7       SYMBOL        EA
  D:00E6H         SYMBOL        EIE1
  D:00E7H         SYMBOL        EIE2
  D:00F6H         SYMBOL        EIP1
  D:00F7H         SYMBOL        EIP2
  D:00A3H         SYMBOL        EMI0CF
  D:00AFH         SYMBOL        EMI0CN
  D:00A1H         SYMBOL        EMI0TC
  B:00C0H.6       SYMBOL        ENSMB
  B:00A8H.4       SYMBOL        ES
  B:00A8H.1       SYMBOL        ET0
  B:00A8H.3       SYMBOL        ET1
  B:00A8H.5       SYMBOL        ET2
  B:00A8H.0       SYMBOL        EX0
  B:00A8H.2       SYMBOL        EX1
  B:00C8H.3       SYMBOL        EXEN2
  B:00C8H.6       SYMBOL        EXF2
  B:00D0H.5       SYMBOL        F0
  B:00D0H.1       SYMBOL        F1
  D:00B7H         SYMBOL        FLACL
  D:00B6H         SYMBOL        FLSCL
BL51 BANKED LINKER/LOCATER V6.22.4.0                                                  01/10/2026  10:26:27  PAGE 34


  D:00A8H         SYMBOL        IE
  B:0088H.1       SYMBOL        IE0
  B:0088H.3       SYMBOL        IE1
  D:00B8H         SYMBOL        IP
  B:0088H.0       SYMBOL        IT0
  B:0088H.2       SYMBOL        IT1
  C:1048H         SYMBOL        MK_SK1
  C:1088H         SYMBOL        MK_SK10
  C:108EH         SYMBOL        MK_SK11
  C:1094H         SYMBOL        MK_SK12
  C:109FH         SYMBOL        MK_SK13
  C:10A5H         SYMBOL        MK_SK14
  C:10ABH         SYMBOL        MK_SK15
  C:10B1H         SYMBOL        MK_SK16
  C:104EH         SYMBOL        MK_SK2
  C:1054H         SYMBOL        MK_SK3
  C:105AH         SYMBOL        MK_SK4
  C:1065H         SYMBOL        MK_SK5
  C:106BH         SYMBOL        MK_SK6
  C:1071H         SYMBOL        MK_SK7
  C:1077H         SYMBOL        MK_SK8
  C:1082H         SYMBOL        MK_SK9
  B:00F8H.5       SYMBOL        MODF
  B:00F8H.1       SYMBOL        MSTEN
  C:10EBH         SYMBOL        MXK_10_CHECK
  C:110FH         SYMBOL        MXK_11_CHECK
  C:1133H         SYMBOL        MXK_12_CHECK
  C:10D0H         SYMBOL        MXK_13_CHECK
  C:10F4H         SYMBOL        MXK_14_CHECK
  C:1118H         SYMBOL        MXK_15_CHECK
  C:113CH         SYMBOL        MXK_16_CHECK
  C:10B5H         SYMBOL        MXK_1_CHECK
  C:10D9H         SYMBOL        MXK_2_CHECK
  C:10FDH         SYMBOL        MXK_3_CHECK
  C:1121H         SYMBOL        MXK_4_CHECK
  C:10BEH         SYMBOL        MXK_5_CHECK
  C:10E2H         SYMBOL        MXK_6_CHECK
  C:1106H         SYMBOL        MXK_7_CHECK
  C:112AH         SYMBOL        MXK_8_CHECK
  C:10C7H         SYMBOL        MXK_9_CHECK
  D:00B2H         SYMBOL        OSCICN
  D:00B1H         SYMBOL        OSCXCN
  B:00D0H.2       SYMBOL        OV
  B:00D0H.0       SYMBOL        P
  D:0080H         SYMBOL        P0
  D:00A4H         SYMBOL        P0MDOUT
  D:0090H         SYMBOL        P1
  D:00BDH         SYMBOL        P1MDIN
  D:00A5H         SYMBOL        P1MDOUT
  D:00A0H         SYMBOL        P2
  D:00A6H         SYMBOL        P2MDOUT
  D:00B0H         SYMBOL        P3
  D:00ADH         SYMBOL        P3IF
  D:00A7H         SYMBOL        P3MDOUT
  D:0084H         SYMBOL        P4
  D:0085H         SYMBOL        P5
  D:0086H         SYMBOL        P6
BL51 BANKED LINKER/LOCATER V6.22.4.0                                                  01/10/2026  10:26:27  PAGE 35


  D:0096H         SYMBOL        P7
  D:00B5H         SYMBOL        P74OUT
  D:00D8H         SYMBOL        PCA0CN
  D:00FAH         SYMBOL        PCA0CPH0
  D:00FBH         SYMBOL        PCA0CPH1
  D:00FCH         SYMBOL        PCA0CPH2
  D:00FDH         SYMBOL        PCA0CPH3
  D:00FEH         SYMBOL        PCA0CPH4
  D:00EAH         SYMBOL        PCA0CPL0
  D:00EBH         SYMBOL        PCA0CPL1
  D:00ECH         SYMBOL        PCA0CPL2
  D:00EDH         SYMBOL        PCA0CPL3
  D:00EEH         SYMBOL        PCA0CPL4
  D:00DAH         SYMBOL        PCA0CPM0
  D:00DBH         SYMBOL        PCA0CPM1
  D:00DCH         SYMBOL        PCA0CPM2
  D:00DDH         SYMBOL        PCA0CPM3
  D:00DEH         SYMBOL        PCA0CPM4
  D:00F9H         SYMBOL        PCA0H
  D:00E9H         SYMBOL        PCA0L
  D:00D9H         SYMBOL        PCA0MD
  D:0087H         SYMBOL        PCON
  B:00B8H.4       SYMBOL        PS
  D:008FH         SYMBOL        PSCTL
  D:00D0H         SYMBOL        PSW
  B:00B8H.1       SYMBOL        PT0
  B:00B8H.3       SYMBOL        PT1
  B:00B8H.5       SYMBOL        PT2
  B:00B8H.0       SYMBOL        PX0
  B:00B8H.2       SYMBOL        PX1
  B:0098H.2       SYMBOL        RB8
  D:00CBH         SYMBOL        RCAP2H
  D:00CAH         SYMBOL        RCAP2L
  D:00E5H         SYMBOL        RCAP4H
  D:00E4H         SYMBOL        RCAP4L
  B:00C8H.5       SYMBOL        RCLK
  D:00D1H         SYMBOL        REF0CN
  B:0098H.4       SYMBOL        REN
  B:0098H.0       SYMBOL        RI
  B:00D0H.3       SYMBOL        RS0
  B:00D0H.4       SYMBOL        RS1
  D:00EFH         SYMBOL        RSTSRC
  B:00F8H.4       SYMBOL        RXOVRN
  D:00A9H         SYMBOL        SADDR0
  D:00F3H         SYMBOL        SADDR1
  D:00B9H         SYMBOL        SADEN0
  D:00AEH         SYMBOL        SADEN1
  D:0099H         SYMBOL        SBUF0
  D:00F2H         SYMBOL        SBUF1
  D:0098H         SYMBOL        SCON0
  D:00F1H         SYMBOL        SCON1
  B:00C0H.3       SYMBOL        SI
  B:00F8H.2       SYMBOL        SLVSEL
  B:0098H.7       SYMBOL        SM0
  B:0098H.6       SYMBOL        SM1
  B:0098H.5       SYMBOL        SM2
  D:00C3H         SYMBOL        SMB0ADR
BL51 BANKED LINKER/LOCATER V6.22.4.0                                                  01/10/2026  10:26:27  PAGE 36


  D:00C0H         SYMBOL        SMB0CN
  D:00CFH         SYMBOL        SMB0CR
  D:00C2H         SYMBOL        SMB0DAT
  D:00C1H         SYMBOL        SMB0STA
  B:00C0H.1       SYMBOL        SMBFTE
  B:00C0H.0       SYMBOL        SMBTOE
  D:0081H         SYMBOL        SP
  D:009AH         SYMBOL        SPI0CFG
  D:009DH         SYMBOL        SPI0CKR
  D:00F8H         SYMBOL        SPI0CN
  D:009BH         SYMBOL        SPI0DAT
  B:00F8H.0       SYMBOL        SPIEN
  B:00F8H.7       SYMBOL        SPIF
  B:00C0H.5       SYMBOL        STA
  B:00C0H.4       SYMBOL        STO
  D:00C8H         SYMBOL        T2CON
  D:00C9H         SYMBOL        T4CON
  B:0098H.3       SYMBOL        TB8
  B:00C8H.4       SYMBOL        TCLK
  D:0088H         SYMBOL        TCON
  B:0088H.5       SYMBOL        TF0
  B:0088H.7       SYMBOL        TF1
  B:00C8H.7       SYMBOL        TF2
  D:008CH         SYMBOL        TH0
  D:008DH         SYMBOL        TH1
  D:00CDH         SYMBOL        TH2
  D:00F5H         SYMBOL        TH4
  B:0098H.1       SYMBOL        TI
  D:008AH         SYMBOL        TL0
  D:008BH         SYMBOL        TL1
  D:00CCH         SYMBOL        TL2
  D:00F4H         SYMBOL        TL4
  D:0089H         SYMBOL        TMOD
  D:0091H         SYMBOL        TMR3CN
  D:0095H         SYMBOL        TMR3H
  D:0094H         SYMBOL        TMR3L
  D:0093H         SYMBOL        TMR3RLH
  D:0092H         SYMBOL        TMR3RLL
  B:0088H.4       SYMBOL        TR0
  B:0088H.6       SYMBOL        TR1
  B:00C8H.2       SYMBOL        TR2
  B:00F8H.3       SYMBOL        TXBSY
  B:00F8H.6       SYMBOL        WCOL
  D:00FFH         SYMBOL        WDTCN
  D:00E1H         SYMBOL        XBR0
  D:00E2H         SYMBOL        XBR1
  D:00E3H         SYMBOL        XBR2
  C:103BH         LINE#         11
  C:103DH         LINE#         12
  C:1040H         LINE#         14
  C:1042H         LINE#         15
  C:1045H         LINE#         16
  C:1048H         LINE#         18
  C:104BH         LINE#         19
  C:104EH         LINE#         21
  C:1051H         LINE#         22
  C:1054H         LINE#         24
BL51 BANKED LINKER/LOCATER V6.22.4.0                                                  01/10/2026  10:26:27  PAGE 37


  C:1057H         LINE#         25
  C:105AH         LINE#         27
  C:105DH         LINE#         29
  C:105FH         LINE#         30
  C:1062H         LINE#         31
  C:1065H         LINE#         33
  C:1068H         LINE#         34
  C:106BH         LINE#         36
  C:106EH         LINE#         37
  C:1071H         LINE#         39
  C:1074H         LINE#         40
  C:1077H         LINE#         42
  C:107AH         LINE#         44
  C:107CH         LINE#         45
  C:107FH         LINE#         46
  C:1082H         LINE#         48
  C:1085H         LINE#         49
  C:1088H         LINE#         51
  C:108BH         LINE#         52
  C:108EH         LINE#         54
  C:1091H         LINE#         55
  C:1094H         LINE#         57
  C:1097H         LINE#         59
  C:1099H         LINE#         60
  C:109CH         LINE#         61
  C:109FH         LINE#         63
  C:10A2H         LINE#         64
  C:10A5H         LINE#         66
  C:10A8H         LINE#         67
  C:10ABH         LINE#         69
  C:10AEH         LINE#         70
  C:10B1H         LINE#         72
  C:10B4H         LINE#         73
  C:10B5H         LINE#         76
  C:10B7H         LINE#         77
  C:10BAH         LINE#         78
  C:10BDH         LINE#         79
  C:10BEH         LINE#         81
  C:10C0H         LINE#         82
  C:10C3H         LINE#         83
  C:10C6H         LINE#         84
  C:10C7H         LINE#         86
  C:10C9H         LINE#         87
  C:10CCH         LINE#         88
  C:10CFH         LINE#         89
  C:10D0H         LINE#         91
  C:10D2H         LINE#         92
  C:10D5H         LINE#         93
  C:10D8H         LINE#         94
  C:10D9H         LINE#         96
  C:10DBH         LINE#         97
  C:10DEH         LINE#         98
  C:10E1H         LINE#         99
  C:10E2H         LINE#         101
  C:10E4H         LINE#         102
  C:10E7H         LINE#         103
  C:10EAH         LINE#         104
BL51 BANKED LINKER/LOCATER V6.22.4.0                                                  01/10/2026  10:26:27  PAGE 38


  C:10EBH         LINE#         106
  C:10EDH         LINE#         107
  C:10F0H         LINE#         108
  C:10F3H         LINE#         109
  C:10F4H         LINE#         111
  C:10F6H         LINE#         112
  C:10F9H         LINE#         113
  C:10FCH         LINE#         114
  C:10FDH         LINE#         116
  C:10FFH         LINE#         117
  C:1102H         LINE#         118
  C:1105H         LINE#         119
  C:1106H         LINE#         121
  C:1108H         LINE#         122
  C:110BH         LINE#         123
  C:110EH         LINE#         124
  C:110FH         LINE#         126
  C:1111H         LINE#         127
  C:1114H         LINE#         128
  C:1117H         LINE#         129
  C:1118H         LINE#         131
  C:111AH         LINE#         132
  C:111DH         LINE#         133
  C:1120H         LINE#         134
  C:1121H         LINE#         136
  C:1123H         LINE#         137
  C:1126H         LINE#         138
  C:1129H         LINE#         139
  C:112AH         LINE#         141
  C:112CH         LINE#         142
  C:112FH         LINE#         143
  C:1132H         LINE#         144
  C:1133H         LINE#         146
  C:1135H         LINE#         147
  C:1138H         LINE#         148
  C:113BH         LINE#         149
  C:113CH         LINE#         151
  C:113EH         LINE#         152
  C:1141H         LINE#         153
  C:1144H         LINE#         154
  -------         ENDMOD        KEYBOARD

  -------         MODULE        TIMER0
  C:1242H         SEGMENT       TMR0
  C:1242H         PUBLIC        TIMER0_INIT
  C:124BH         PUBLIC        TIMER0_ISR
  B:00C0H.2       SYMBOL        AA
  B:00D0H.6       SYMBOL        AC
  D:00E0H         SYMBOL        ACC
  B:00E8H.4       SYMBOL        AD0BUSY
  B:00E8H.7       SYMBOL        AD0EN
  B:00E8H.5       SYMBOL        AD0INT
  B:00E8H.0       SYMBOL        AD0LJST
  B:00E8H.2       SYMBOL        AD0STM0
  B:00E8H.3       SYMBOL        AD0STM1
  B:00E8H.6       SYMBOL        AD0TM
  B:00E8H.1       SYMBOL        AD0WINT
BL51 BANKED LINKER/LOCATER V6.22.4.0                                                  01/10/2026  10:26:27  PAGE 39


  D:00BCH         SYMBOL        ADC0CF
  D:00E8H         SYMBOL        ADC0CN
  D:00C5H         SYMBOL        ADC0GTH
  D:00C4H         SYMBOL        ADC0GTL
  D:00BFH         SYMBOL        ADC0H
  D:00BEH         SYMBOL        ADC0L
  D:00C7H         SYMBOL        ADC0LTH
  D:00C6H         SYMBOL        ADC0LTL
  D:009CH         SYMBOL        ADC1
  D:00ABH         SYMBOL        ADC1CF
  D:00AAH         SYMBOL        ADC1CN
  D:00BAH         SYMBOL        AMX0CF
  D:00BBH         SYMBOL        AMX0SL
  D:00ACH         SYMBOL        AMX1SL
  D:00F0H         SYMBOL        B
  B:00D8H.0       SYMBOL        CCF0
  B:00D8H.1       SYMBOL        CCF1
  B:00D8H.2       SYMBOL        CCF2
  B:00D8H.3       SYMBOL        CCF3
  B:00D8H.4       SYMBOL        CCF4
  B:00D8H.7       SYMBOL        CF
  D:008EH         SYMBOL        CKCON
  B:00C8H.0       SYMBOL        CPRL2
  D:009EH         SYMBOL        CPT0CN
  D:009FH         SYMBOL        CPT1CN
  B:00D8H.6       SYMBOL        CR
  B:00C8H.1       SYMBOL        CT2
  B:00D0H.7       SYMBOL        CY
  D:00D4H         SYMBOL        DAC0CN
  D:00D3H         SYMBOL        DAC0H
  D:00D2H         SYMBOL        DAC0L
  D:00D7H         SYMBOL        DAC1CN
  D:00D6H         SYMBOL        DAC1H
  D:00D5H         SYMBOL        DAC1L
  D:0083H         SYMBOL        DPH
  D:0082H         SYMBOL        DPL
  B:00A8H.7       SYMBOL        EA
  D:00E6H         SYMBOL        EIE1
  D:00E7H         SYMBOL        EIE2
  D:00F6H         SYMBOL        EIP1
  D:00F7H         SYMBOL        EIP2
  D:00A3H         SYMBOL        EMI0CF
  D:00AFH         SYMBOL        EMI0CN
  D:00A1H         SYMBOL        EMI0TC
  B:00C0H.6       SYMBOL        ENSMB
  B:00A8H.4       SYMBOL        ES
  B:00A8H.1       SYMBOL        ET0
  B:00A8H.3       SYMBOL        ET1
  B:00A8H.5       SYMBOL        ET2
  B:00A8H.0       SYMBOL        EX0
  B:00A8H.2       SYMBOL        EX1
  B:00C8H.3       SYMBOL        EXEN2
  B:00C8H.6       SYMBOL        EXF2
  B:00D0H.5       SYMBOL        F0
  B:00D0H.1       SYMBOL        F1
  D:00B7H         SYMBOL        FLACL
  D:00B6H         SYMBOL        FLSCL
BL51 BANKED LINKER/LOCATER V6.22.4.0                                                  01/10/2026  10:26:27  PAGE 40


  D:00A8H         SYMBOL        IE
  B:0088H.1       SYMBOL        IE0
  B:0088H.3       SYMBOL        IE1
  D:00B8H         SYMBOL        IP
  B:0088H.0       SYMBOL        IT0
  B:0088H.2       SYMBOL        IT1
  B:00F8H.5       SYMBOL        MODF
  B:00F8H.1       SYMBOL        MSTEN
  D:00B2H         SYMBOL        OSCICN
  D:00B1H         SYMBOL        OSCXCN
  B:00D0H.2       SYMBOL        OV
  B:00D0H.0       SYMBOL        P
  D:0080H         SYMBOL        P0
  D:00A4H         SYMBOL        P0MDOUT
  D:0090H         SYMBOL        P1
  D:00BDH         SYMBOL        P1MDIN
  D:00A5H         SYMBOL        P1MDOUT
  D:00A0H         SYMBOL        P2
  D:00A6H         SYMBOL        P2MDOUT
  D:00B0H         SYMBOL        P3
  D:00ADH         SYMBOL        P3IF
  D:00A7H         SYMBOL        P3MDOUT
  D:0084H         SYMBOL        P4
  D:0085H         SYMBOL        P5
  D:0086H         SYMBOL        P6
  D:0096H         SYMBOL        P7
  D:00B5H         SYMBOL        P74OUT
  D:00D8H         SYMBOL        PCA0CN
  D:00FAH         SYMBOL        PCA0CPH0
  D:00FBH         SYMBOL        PCA0CPH1
  D:00FCH         SYMBOL        PCA0CPH2
  D:00FDH         SYMBOL        PCA0CPH3
  D:00FEH         SYMBOL        PCA0CPH4
  D:00EAH         SYMBOL        PCA0CPL0
  D:00EBH         SYMBOL        PCA0CPL1
  D:00ECH         SYMBOL        PCA0CPL2
  D:00EDH         SYMBOL        PCA0CPL3
  D:00EEH         SYMBOL        PCA0CPL4
  D:00DAH         SYMBOL        PCA0CPM0
  D:00DBH         SYMBOL        PCA0CPM1
  D:00DCH         SYMBOL        PCA0CPM2
  D:00DDH         SYMBOL        PCA0CPM3
  D:00DEH         SYMBOL        PCA0CPM4
  D:00F9H         SYMBOL        PCA0H
  D:00E9H         SYMBOL        PCA0L
  D:00D9H         SYMBOL        PCA0MD
  D:0087H         SYMBOL        PCON
  B:00B8H.4       SYMBOL        PS
  D:008FH         SYMBOL        PSCTL
  D:00D0H         SYMBOL        PSW
  B:00B8H.1       SYMBOL        PT0
  B:00B8H.3       SYMBOL        PT1
  B:00B8H.5       SYMBOL        PT2
  B:00B8H.0       SYMBOL        PX0
  B:00B8H.2       SYMBOL        PX1
  B:0098H.2       SYMBOL        RB8
  D:00CBH         SYMBOL        RCAP2H
BL51 BANKED LINKER/LOCATER V6.22.4.0                                                  01/10/2026  10:26:27  PAGE 41


  D:00CAH         SYMBOL        RCAP2L
  D:00E5H         SYMBOL        RCAP4H
  D:00E4H         SYMBOL        RCAP4L
  B:00C8H.5       SYMBOL        RCLK
  D:00D1H         SYMBOL        REF0CN
  B:0098H.4       SYMBOL        REN
  B:0098H.0       SYMBOL        RI
  B:00D0H.3       SYMBOL        RS0
  B:00D0H.4       SYMBOL        RS1
  D:00EFH         SYMBOL        RSTSRC
  B:00F8H.4       SYMBOL        RXOVRN
  D:00A9H         SYMBOL        SADDR0
  D:00F3H         SYMBOL        SADDR1
  D:00B9H         SYMBOL        SADEN0
  D:00AEH         SYMBOL        SADEN1
  D:0099H         SYMBOL        SBUF0
  D:00F2H         SYMBOL        SBUF1
  D:0098H         SYMBOL        SCON0
  D:00F1H         SYMBOL        SCON1
  B:00C0H.3       SYMBOL        SI
  B:00F8H.2       SYMBOL        SLVSEL
  B:0098H.7       SYMBOL        SM0
  B:0098H.6       SYMBOL        SM1
  B:0098H.5       SYMBOL        SM2
  D:00C3H         SYMBOL        SMB0ADR
  D:00C0H         SYMBOL        SMB0CN
  D:00CFH         SYMBOL        SMB0CR
  D:00C2H         SYMBOL        SMB0DAT
  D:00C1H         SYMBOL        SMB0STA
  B:00C0H.1       SYMBOL        SMBFTE
  B:00C0H.0       SYMBOL        SMBTOE
  D:0081H         SYMBOL        SP
  D:009AH         SYMBOL        SPI0CFG
  D:009DH         SYMBOL        SPI0CKR
  D:00F8H         SYMBOL        SPI0CN
  D:009BH         SYMBOL        SPI0DAT
  B:00F8H.0       SYMBOL        SPIEN
  B:00F8H.7       SYMBOL        SPIF
  B:00C0H.5       SYMBOL        STA
  B:00C0H.4       SYMBOL        STO
  C:128FH         SYMBOL        T0_CHK_ARR
  C:1294H         SYMBOL        T0_CHK_CLS
  C:12C2H         SYMBOL        T0_CHK_DOWN
  C:12EAH         SYMBOL        T0_CHK_END_ARR
  C:12FBH         SYMBOL        T0_CHK_END_CLS
  C:1299H         SYMBOL        T0_CHK_IDLE
  C:12CFH         SYMBOL        T0_CHK_TIMER_NZ
  C:129EH         SYMBOL        T0_DO_TIMING
  C:1288H         SYMBOL        T0_ELEV_TIMING
  C:130CH         SYMBOL        T0_EXIT
  C:1265H         SYMBOL        T0_INC
  C:125EH         SYMBOL        T0_KEY_HELD
  C:1270H         SYMBOL        T0_LONG_REACHED
  C:12D3H         SYMBOL        T0_TIME_UP_HANDLE
  C:12CDH         SYMBOL        T0_UPD_FLR
  D:00C8H         SYMBOL        T2CON
  D:00C9H         SYMBOL        T4CON
BL51 BANKED LINKER/LOCATER V6.22.4.0                                                  01/10/2026  10:26:27  PAGE 42


  B:0098H.3       SYMBOL        TB8
  B:00C8H.4       SYMBOL        TCLK
  D:0088H         SYMBOL        TCON
  B:0088H.5       SYMBOL        TF0
  B:0088H.7       SYMBOL        TF1
  B:00C8H.7       SYMBOL        TF2
  D:008CH         SYMBOL        TH0
  D:008DH         SYMBOL        TH1
  D:00CDH         SYMBOL        TH2
  D:00F5H         SYMBOL        TH4
  B:0098H.1       SYMBOL        TI
  D:008AH         SYMBOL        TL0
  D:008BH         SYMBOL        TL1
  D:00CCH         SYMBOL        TL2
  D:00F4H         SYMBOL        TL4
  D:0089H         SYMBOL        TMOD
  D:0091H         SYMBOL        TMR3CN
  D:0095H         SYMBOL        TMR3H
  D:0094H         SYMBOL        TMR3L
  D:0093H         SYMBOL        TMR3RLH
  D:0092H         SYMBOL        TMR3RLL
  B:0088H.4       SYMBOL        TR0
  B:0088H.6       SYMBOL        TR1
  B:00C8H.2       SYMBOL        TR2
  B:00F8H.3       SYMBOL        TXBSY
  B:00F8H.6       SYMBOL        WCOL
  D:00FFH         SYMBOL        WDTCN
  D:00E1H         SYMBOL        XBR0
  D:00E2H         SYMBOL        XBR1
  D:00E3H         SYMBOL        XBR2
  C:1242H         LINE#         10
  C:1245H         LINE#         11
  C:1248H         LINE#         12
  C:124AH         LINE#         13
  C:124BH         LINE#         16
  C:124DH         LINE#         17
  C:124FH         LINE#         18
  C:1251H         LINE#         20
  C:1254H         LINE#         21
  C:1257H         LINE#         23
  C:1259H         LINE#         24
  C:125CH         LINE#         25
  C:125EH         LINE#         28
  C:1260H         LINE#         29
  C:1263H         LINE#         30
  C:1265H         LINE#         32
  C:1267H         LINE#         33
  C:1269H         LINE#         34
  C:126AH         LINE#         35
  C:126CH         LINE#         36
  C:126EH         LINE#         37
  C:1270H         LINE#         40
  C:1272H         LINE#         41
  C:1275H         LINE#         42
  C:1277H         LINE#         43
  C:1279H         LINE#         44
  C:127BH         LINE#         45
BL51 BANKED LINKER/LOCATER V6.22.4.0                                                  01/10/2026  10:26:27  PAGE 43


  C:127DH         LINE#         46
  C:1280H         LINE#         47
  C:1283H         LINE#         48
  C:1286H         LINE#         49
  C:1288H         LINE#         53
  C:128AH         LINE#         54
  C:128DH         LINE#         55
  C:128FH         LINE#         57
  C:1292H         LINE#         58
  C:1294H         LINE#         60
  C:1297H         LINE#         61
  C:1299H         LINE#         63
  C:129CH         LINE#         64
  C:129EH         LINE#         67
  C:12A0H         LINE#         68
  C:12A2H         LINE#         69
  C:12A5H         LINE#         70
  C:12A8H         LINE#         71
  C:12AAH         LINE#         72
  C:12ACH         LINE#         73
  C:12AEH         LINE#         76
  C:12B0H         LINE#         77
  C:12B3H         LINE#         80
  C:12B5H         LINE#         81
  C:12B8H         LINE#         83
  C:12BAH         LINE#         84
  C:12BBH         LINE#         85
  C:12BEH         LINE#         86
  C:12C0H         LINE#         87
  C:12C2H         LINE#         90
  C:12C5H         LINE#         92
  C:12C7H         LINE#         93
  C:12C8H         LINE#         94
  C:12CBH         LINE#         95
  C:12CDH         LINE#         98
  C:12CFH         LINE#         101
  C:12D1H         LINE#         102
  C:12D3H         LINE#         105
  C:12D5H         LINE#         106
  C:12D8H         LINE#         108
  C:12DBH         LINE#         109
  C:12DEH         LINE#         110
  C:12E1H         LINE#         111
  C:12E3H         LINE#         112
  C:12E5H         LINE#         113
  C:12E8H         LINE#         114
  C:12EAH         LINE#         117
  C:12EDH         LINE#         119
  C:12F0H         LINE#         120
  C:12F3H         LINE#         121
  C:12F6H         LINE#         122
  C:12F9H         LINE#         123
  C:12FBH         LINE#         126
  C:12FEH         LINE#         128
  C:1301H         LINE#         129
  C:1304H         LINE#         130
  C:1307H         LINE#         131
BL51 BANKED LINKER/LOCATER V6.22.4.0                                                  01/10/2026  10:26:27  PAGE 44


  C:130AH         LINE#         132
  C:130CH         LINE#         135
  C:130EH         LINE#         136
  C:1310H         LINE#         137
  C:1312H         LINE#         138
  -------         ENDMOD        TIMER0

  -------         MODULE        TIMER1
  C:1403H         SEGMENT       TMR1
  C:1403H         PUBLIC        TIMER1_INIT
  C:1412H         PUBLIC        TIMER1_ISR
  B:00C0H.2       SYMBOL        AA
  B:00D0H.6       SYMBOL        AC
  D:00E0H         SYMBOL        ACC
  B:00E8H.4       SYMBOL        AD0BUSY
  B:00E8H.7       SYMBOL        AD0EN
  B:00E8H.5       SYMBOL        AD0INT
  B:00E8H.0       SYMBOL        AD0LJST
  B:00E8H.2       SYMBOL        AD0STM0
  B:00E8H.3       SYMBOL        AD0STM1
  B:00E8H.6       SYMBOL        AD0TM
  B:00E8H.1       SYMBOL        AD0WINT
  D:00BCH         SYMBOL        ADC0CF
  D:00E8H         SYMBOL        ADC0CN
  D:00C5H         SYMBOL        ADC0GTH
  D:00C4H         SYMBOL        ADC0GTL
  D:00BFH         SYMBOL        ADC0H
  D:00BEH         SYMBOL        ADC0L
  D:00C7H         SYMBOL        ADC0LTH
  D:00C6H         SYMBOL        ADC0LTL
  D:009CH         SYMBOL        ADC1
  D:00ABH         SYMBOL        ADC1CF
  D:00AAH         SYMBOL        ADC1CN
  D:00BAH         SYMBOL        AMX0CF
  D:00BBH         SYMBOL        AMX0SL
  D:00ACH         SYMBOL        AMX1SL
  D:00F0H         SYMBOL        B
  B:00D8H.0       SYMBOL        CCF0
  B:00D8H.1       SYMBOL        CCF1
  B:00D8H.2       SYMBOL        CCF2
  B:00D8H.3       SYMBOL        CCF3
  B:00D8H.4       SYMBOL        CCF4
  B:00D8H.7       SYMBOL        CF
  D:008EH         SYMBOL        CKCON
  B:00C8H.0       SYMBOL        CPRL2
  D:009EH         SYMBOL        CPT0CN
  D:009FH         SYMBOL        CPT1CN
  B:00D8H.6       SYMBOL        CR
  B:00C8H.1       SYMBOL        CT2
  B:00D0H.7       SYMBOL        CY
  D:00D4H         SYMBOL        DAC0CN
  D:00D3H         SYMBOL        DAC0H
  D:00D2H         SYMBOL        DAC0L
  D:00D7H         SYMBOL        DAC1CN
  D:00D6H         SYMBOL        DAC1H
  D:00D5H         SYMBOL        DAC1L
  D:0083H         SYMBOL        DPH
BL51 BANKED LINKER/LOCATER V6.22.4.0                                                  01/10/2026  10:26:27  PAGE 45


  D:0082H         SYMBOL        DPL
  B:00A8H.7       SYMBOL        EA
  D:00E6H         SYMBOL        EIE1
  D:00E7H         SYMBOL        EIE2
  D:00F6H         SYMBOL        EIP1
  D:00F7H         SYMBOL        EIP2
  D:00A3H         SYMBOL        EMI0CF
  D:00AFH         SYMBOL        EMI0CN
  D:00A1H         SYMBOL        EMI0TC
  B:00C0H.6       SYMBOL        ENSMB
  B:00A8H.4       SYMBOL        ES
  B:00A8H.1       SYMBOL        ET0
  B:00A8H.3       SYMBOL        ET1
  B:00A8H.5       SYMBOL        ET2
  B:00A8H.0       SYMBOL        EX0
  B:00A8H.2       SYMBOL        EX1
  B:00C8H.3       SYMBOL        EXEN2
  B:00C8H.6       SYMBOL        EXF2
  B:00D0H.5       SYMBOL        F0
  B:00D0H.1       SYMBOL        F1
  D:00B7H         SYMBOL        FLACL
  D:00B6H         SYMBOL        FLSCL
  D:00A8H         SYMBOL        IE
  B:0088H.1       SYMBOL        IE0
  B:0088H.3       SYMBOL        IE1
  D:00B8H         SYMBOL        IP
  B:0088H.0       SYMBOL        IT0
  B:0088H.2       SYMBOL        IT1
  B:00F8H.5       SYMBOL        MODF
  B:00F8H.1       SYMBOL        MSTEN
  D:00B2H         SYMBOL        OSCICN
  D:00B1H         SYMBOL        OSCXCN
  B:00D0H.2       SYMBOL        OV
  B:00D0H.0       SYMBOL        P
  D:0080H         SYMBOL        P0
  D:00A4H         SYMBOL        P0MDOUT
  D:0090H         SYMBOL        P1
  D:00BDH         SYMBOL        P1MDIN
  D:00A5H         SYMBOL        P1MDOUT
  D:00A0H         SYMBOL        P2
  D:00A6H         SYMBOL        P2MDOUT
  D:00B0H         SYMBOL        P3
  D:00ADH         SYMBOL        P3IF
  D:00A7H         SYMBOL        P3MDOUT
  D:0084H         SYMBOL        P4
  D:0085H         SYMBOL        P5
  D:0086H         SYMBOL        P6
  D:0096H         SYMBOL        P7
  D:00B5H         SYMBOL        P74OUT
  D:00D8H         SYMBOL        PCA0CN
  D:00FAH         SYMBOL        PCA0CPH0
  D:00FBH         SYMBOL        PCA0CPH1
  D:00FCH         SYMBOL        PCA0CPH2
  D:00FDH         SYMBOL        PCA0CPH3
  D:00FEH         SYMBOL        PCA0CPH4
  D:00EAH         SYMBOL        PCA0CPL0
  D:00EBH         SYMBOL        PCA0CPL1
BL51 BANKED LINKER/LOCATER V6.22.4.0                                                  01/10/2026  10:26:27  PAGE 46


  D:00ECH         SYMBOL        PCA0CPL2
  D:00EDH         SYMBOL        PCA0CPL3
  D:00EEH         SYMBOL        PCA0CPL4
  D:00DAH         SYMBOL        PCA0CPM0
  D:00DBH         SYMBOL        PCA0CPM1
  D:00DCH         SYMBOL        PCA0CPM2
  D:00DDH         SYMBOL        PCA0CPM3
  D:00DEH         SYMBOL        PCA0CPM4
  D:00F9H         SYMBOL        PCA0H
  D:00E9H         SYMBOL        PCA0L
  D:00D9H         SYMBOL        PCA0MD
  D:0087H         SYMBOL        PCON
  B:00B8H.4       SYMBOL        PS
  D:008FH         SYMBOL        PSCTL
  D:00D0H         SYMBOL        PSW
  B:00B8H.1       SYMBOL        PT0
  B:00B8H.3       SYMBOL        PT1
  B:00B8H.5       SYMBOL        PT2
  B:00B8H.0       SYMBOL        PX0
  B:00B8H.2       SYMBOL        PX1
  B:0098H.2       SYMBOL        RB8
  D:00CBH         SYMBOL        RCAP2H
  D:00CAH         SYMBOL        RCAP2L
  D:00E5H         SYMBOL        RCAP4H
  D:00E4H         SYMBOL        RCAP4L
  B:00C8H.5       SYMBOL        RCLK
  D:00D1H         SYMBOL        REF0CN
  B:0098H.4       SYMBOL        REN
  B:0098H.0       SYMBOL        RI
  B:00D0H.3       SYMBOL        RS0
  B:00D0H.4       SYMBOL        RS1
  D:00EFH         SYMBOL        RSTSRC
  B:00F8H.4       SYMBOL        RXOVRN
  D:00A9H         SYMBOL        SADDR0
  D:00F3H         SYMBOL        SADDR1
  D:00B9H         SYMBOL        SADEN0
  D:00AEH         SYMBOL        SADEN1
  D:0099H         SYMBOL        SBUF0
  D:00F2H         SYMBOL        SBUF1
  D:0098H         SYMBOL        SCON0
  D:00F1H         SYMBOL        SCON1
  B:00C0H.3       SYMBOL        SI
  B:00F8H.2       SYMBOL        SLVSEL
  B:0098H.7       SYMBOL        SM0
  B:0098H.6       SYMBOL        SM1
  B:0098H.5       SYMBOL        SM2
  D:00C3H         SYMBOL        SMB0ADR
  D:00C0H         SYMBOL        SMB0CN
  D:00CFH         SYMBOL        SMB0CR
  D:00C2H         SYMBOL        SMB0DAT
  D:00C1H         SYMBOL        SMB0STA
  B:00C0H.1       SYMBOL        SMBFTE
  B:00C0H.0       SYMBOL        SMBTOE
  D:0081H         SYMBOL        SP
  D:009AH         SYMBOL        SPI0CFG
  D:009DH         SYMBOL        SPI0CKR
  D:00F8H         SYMBOL        SPI0CN
BL51 BANKED LINKER/LOCATER V6.22.4.0                                                  01/10/2026  10:26:27  PAGE 47


  D:009BH         SYMBOL        SPI0DAT
  B:00F8H.0       SYMBOL        SPIEN
  B:00F8H.7       SYMBOL        SPIF
  B:00C0H.5       SYMBOL        STA
  B:00C0H.4       SYMBOL        STO
  C:1429H         SYMBOL        T1_ISR_EXIT
  D:00C8H         SYMBOL        T2CON
  D:00C9H         SYMBOL        T4CON
  B:0098H.3       SYMBOL        TB8
  B:00C8H.4       SYMBOL        TCLK
  D:0088H         SYMBOL        TCON
  B:0088H.5       SYMBOL        TF0
  B:0088H.7       SYMBOL        TF1
  B:00C8H.7       SYMBOL        TF2
  D:008CH         SYMBOL        TH0
  D:008DH         SYMBOL        TH1
  D:00CDH         SYMBOL        TH2
  D:00F5H         SYMBOL        TH4
  B:0098H.1       SYMBOL        TI
  D:008AH         SYMBOL        TL0
  D:008BH         SYMBOL        TL1
  D:00CCH         SYMBOL        TL2
  D:00F4H         SYMBOL        TL4
  D:0089H         SYMBOL        TMOD
  D:0091H         SYMBOL        TMR3CN
  D:0095H         SYMBOL        TMR3H
  D:0094H         SYMBOL        TMR3L
  D:0093H         SYMBOL        TMR3RLH
  D:0092H         SYMBOL        TMR3RLL
  B:0088H.4       SYMBOL        TR0
  B:0088H.6       SYMBOL        TR1
  B:00C8H.2       SYMBOL        TR2
  B:00F8H.3       SYMBOL        TXBSY
  B:00F8H.6       SYMBOL        WCOL
  D:00FFH         SYMBOL        WDTCN
  D:00E1H         SYMBOL        XBR0
  D:00E2H         SYMBOL        XBR1
  D:00E3H         SYMBOL        XBR2
  C:1403H         LINE#         14
  C:1406H         LINE#         15
  C:1409H         LINE#         16
  C:140CH         LINE#         18
  C:140FH         LINE#         19
  C:1411H         LINE#         20
  C:1412H         LINE#         23
  C:1414H         LINE#         24
  C:1416H         LINE#         25
  C:1418H         LINE#         26
  C:141AH         LINE#         27
  C:141CH         LINE#         28
  C:141EH         LINE#         29
  C:1420H         LINE#         31
  C:1423H         LINE#         32
  C:1426H         LINE#         35
  C:1429H         LINE#         38
  C:142BH         LINE#         39
  C:142DH         LINE#         40
BL51 BANKED LINKER/LOCATER V6.22.4.0                                                  01/10/2026  10:26:27  PAGE 48


  C:142FH         LINE#         41
  C:1431H         LINE#         42
  C:1433H         LINE#         43
  C:1435H         LINE#         44
  C:1437H         LINE#         45
  -------         ENDMOD        TIMER1

  -------         MODULE        TIMER2
  C:146AH         SEGMENT       TIMER2_SEGMENT
  C:146AH         PUBLIC        TIMER2_INIT
  C:148BH         PUBLIC        TIMER2_ISR
  C:147EH         PUBLIC        TIMER2_SET_RELOAD
  C:1475H         PUBLIC        TIMER2_START
  C:1478H         PUBLIC        TIMER2_STOP
  B:00C0H.2       SYMBOL        AA
  B:00D0H.6       SYMBOL        AC
  D:00E0H         SYMBOL        ACC
  B:00E8H.4       SYMBOL        AD0BUSY
  B:00E8H.7       SYMBOL        AD0EN
  B:00E8H.5       SYMBOL        AD0INT
  B:00E8H.0       SYMBOL        AD0LJST
  B:00E8H.2       SYMBOL        AD0STM0
  B:00E8H.3       SYMBOL        AD0STM1
  B:00E8H.6       SYMBOL        AD0TM
  B:00E8H.1       SYMBOL        AD0WINT
  D:00BCH         SYMBOL        ADC0CF
  D:00E8H         SYMBOL        ADC0CN
  D:00C5H         SYMBOL        ADC0GTH
  D:00C4H         SYMBOL        ADC0GTL
  D:00BFH         SYMBOL        ADC0H
  D:00BEH         SYMBOL        ADC0L
  D:00C7H         SYMBOL        ADC0LTH
  D:00C6H         SYMBOL        ADC0LTL
  D:009CH         SYMBOL        ADC1
  D:00ABH         SYMBOL        ADC1CF
  D:00AAH         SYMBOL        ADC1CN
  D:00BAH         SYMBOL        AMX0CF
  D:00BBH         SYMBOL        AMX0SL
  D:00ACH         SYMBOL        AMX1SL
  D:00F0H         SYMBOL        B
  B:00D8H.0       SYMBOL        CCF0
  B:00D8H.1       SYMBOL        CCF1
  B:00D8H.2       SYMBOL        CCF2
  B:00D8H.3       SYMBOL        CCF3
  B:00D8H.4       SYMBOL        CCF4
  B:00D8H.7       SYMBOL        CF
  D:008EH         SYMBOL        CKCON
  B:00C8H.0       SYMBOL        CPRL2
  D:009EH         SYMBOL        CPT0CN
  D:009FH         SYMBOL        CPT1CN
  B:00D8H.6       SYMBOL        CR
  B:00C8H.1       SYMBOL        CT2
  B:00D0H.7       SYMBOL        CY
  D:00D4H         SYMBOL        DAC0CN
  D:00D3H         SYMBOL        DAC0H
  D:00D2H         SYMBOL        DAC0L
  D:00D7H         SYMBOL        DAC1CN
BL51 BANKED LINKER/LOCATER V6.22.4.0                                                  01/10/2026  10:26:27  PAGE 49


  D:00D6H         SYMBOL        DAC1H
  D:00D5H         SYMBOL        DAC1L
  D:0083H         SYMBOL        DPH
  D:0082H         SYMBOL        DPL
  B:00A8H.7       SYMBOL        EA
  D:00E6H         SYMBOL        EIE1
  D:00E7H         SYMBOL        EIE2
  D:00F6H         SYMBOL        EIP1
  D:00F7H         SYMBOL        EIP2
  D:00A3H         SYMBOL        EMI0CF
  D:00AFH         SYMBOL        EMI0CN
  D:00A1H         SYMBOL        EMI0TC
  B:00C0H.6       SYMBOL        ENSMB
  B:00A8H.4       SYMBOL        ES
  B:00A8H.1       SYMBOL        ET0
  B:00A8H.3       SYMBOL        ET1
  B:00A8H.5       SYMBOL        ET2
  B:00A8H.0       SYMBOL        EX0
  B:00A8H.2       SYMBOL        EX1
  B:00C8H.3       SYMBOL        EXEN2
  B:00C8H.6       SYMBOL        EXF2
  B:00D0H.5       SYMBOL        F0
  B:00D0H.1       SYMBOL        F1
  D:00B7H         SYMBOL        FLACL
  D:00B6H         SYMBOL        FLSCL
  D:00A8H         SYMBOL        IE
  B:0088H.1       SYMBOL        IE0
  B:0088H.3       SYMBOL        IE1
  D:00B8H         SYMBOL        IP
  B:0088H.0       SYMBOL        IT0
  B:0088H.2       SYMBOL        IT1
  B:00F8H.5       SYMBOL        MODF
  B:00F8H.1       SYMBOL        MSTEN
  D:00B2H         SYMBOL        OSCICN
  D:00B1H         SYMBOL        OSCXCN
  B:00D0H.2       SYMBOL        OV
  B:00D0H.0       SYMBOL        P
  D:0080H         SYMBOL        P0
  D:00A4H         SYMBOL        P0MDOUT
  D:0090H         SYMBOL        P1
  D:00BDH         SYMBOL        P1MDIN
  D:00A5H         SYMBOL        P1MDOUT
  D:00A0H         SYMBOL        P2
  D:00A6H         SYMBOL        P2MDOUT
  D:00B0H         SYMBOL        P3
  D:00ADH         SYMBOL        P3IF
  D:00A7H         SYMBOL        P3MDOUT
  D:0084H         SYMBOL        P4
  D:0085H         SYMBOL        P5
  D:0086H         SYMBOL        P6
  D:0096H         SYMBOL        P7
  D:00B5H         SYMBOL        P74OUT
  D:00D8H         SYMBOL        PCA0CN
  D:00FAH         SYMBOL        PCA0CPH0
  D:00FBH         SYMBOL        PCA0CPH1
  D:00FCH         SYMBOL        PCA0CPH2
  D:00FDH         SYMBOL        PCA0CPH3
BL51 BANKED LINKER/LOCATER V6.22.4.0                                                  01/10/2026  10:26:27  PAGE 50


  D:00FEH         SYMBOL        PCA0CPH4
  D:00EAH         SYMBOL        PCA0CPL0
  D:00EBH         SYMBOL        PCA0CPL1
  D:00ECH         SYMBOL        PCA0CPL2
  D:00EDH         SYMBOL        PCA0CPL3
  D:00EEH         SYMBOL        PCA0CPL4
  D:00DAH         SYMBOL        PCA0CPM0
  D:00DBH         SYMBOL        PCA0CPM1
  D:00DCH         SYMBOL        PCA0CPM2
  D:00DDH         SYMBOL        PCA0CPM3
  D:00DEH         SYMBOL        PCA0CPM4
  D:00F9H         SYMBOL        PCA0H
  D:00E9H         SYMBOL        PCA0L
  D:00D9H         SYMBOL        PCA0MD
  D:0087H         SYMBOL        PCON
  B:00B8H.4       SYMBOL        PS
  D:008FH         SYMBOL        PSCTL
  D:00D0H         SYMBOL        PSW
  B:00B8H.1       SYMBOL        PT0
  B:00B8H.3       SYMBOL        PT1
  B:00B8H.5       SYMBOL        PT2
  B:00B8H.0       SYMBOL        PX0
  B:00B8H.2       SYMBOL        PX1
  B:0098H.2       SYMBOL        RB8
  D:00CBH         SYMBOL        RCAP2H
  D:00CAH         SYMBOL        RCAP2L
  D:00E5H         SYMBOL        RCAP4H
  D:00E4H         SYMBOL        RCAP4L
  B:00C8H.5       SYMBOL        RCLK
  D:00D1H         SYMBOL        REF0CN
  B:0098H.4       SYMBOL        REN
  B:0098H.0       SYMBOL        RI
  B:00D0H.3       SYMBOL        RS0
  B:00D0H.4       SYMBOL        RS1
  D:00EFH         SYMBOL        RSTSRC
  B:00F8H.4       SYMBOL        RXOVRN
  D:00A9H         SYMBOL        SADDR0
  D:00F3H         SYMBOL        SADDR1
  D:00B9H         SYMBOL        SADEN0
  D:00AEH         SYMBOL        SADEN1
  D:0099H         SYMBOL        SBUF0
  D:00F2H         SYMBOL        SBUF1
  D:0098H         SYMBOL        SCON0
  D:00F1H         SYMBOL        SCON1
  B:00C0H.3       SYMBOL        SI
  B:00F8H.2       SYMBOL        SLVSEL
  B:0098H.7       SYMBOL        SM0
  B:0098H.6       SYMBOL        SM1
  B:0098H.5       SYMBOL        SM2
  D:00C3H         SYMBOL        SMB0ADR
  D:00C0H         SYMBOL        SMB0CN
  D:00CFH         SYMBOL        SMB0CR
  D:00C2H         SYMBOL        SMB0DAT
  D:00C1H         SYMBOL        SMB0STA
  B:00C0H.1       SYMBOL        SMBFTE
  B:00C0H.0       SYMBOL        SMBTOE
  D:0081H         SYMBOL        SP
BL51 BANKED LINKER/LOCATER V6.22.4.0                                                  01/10/2026  10:26:27  PAGE 51


  D:009AH         SYMBOL        SPI0CFG
  D:009DH         SYMBOL        SPI0CKR
  D:00F8H         SYMBOL        SPI0CN
  D:009BH         SYMBOL        SPI0DAT
  B:00F8H.0       SYMBOL        SPIEN
  B:00F8H.7       SYMBOL        SPIF
  B:00C0H.5       SYMBOL        STA
  B:00C0H.4       SYMBOL        STO
  D:00C8H         SYMBOL        T2CON
  D:00C9H         SYMBOL        T4CON
  B:0098H.3       SYMBOL        TB8
  B:00C8H.4       SYMBOL        TCLK
  D:0088H         SYMBOL        TCON
  B:0088H.5       SYMBOL        TF0
  B:0088H.7       SYMBOL        TF1
  B:00C8H.7       SYMBOL        TF2
  D:008CH         SYMBOL        TH0
  D:008DH         SYMBOL        TH1
  D:00CDH         SYMBOL        TH2
  D:00F5H         SYMBOL        TH4
  B:0098H.1       SYMBOL        TI
  N:0000H         SYMBOL        TIMER2
  D:008AH         SYMBOL        TL0
  D:008BH         SYMBOL        TL1
  D:00CCH         SYMBOL        TL2
  D:00F4H         SYMBOL        TL4
  D:0089H         SYMBOL        TMOD
  D:0091H         SYMBOL        TMR3CN
  D:0095H         SYMBOL        TMR3H
  D:0094H         SYMBOL        TMR3L
  D:0093H         SYMBOL        TMR3RLH
  D:0092H         SYMBOL        TMR3RLL
  B:0088H.4       SYMBOL        TR0
  B:0088H.6       SYMBOL        TR1
  B:00C8H.2       SYMBOL        TR2
  B:00F8H.3       SYMBOL        TXBSY
  B:00F8H.6       SYMBOL        WCOL
  D:00FFH         SYMBOL        WDTCN
  D:00E1H         SYMBOL        XBR0
  D:00E2H         SYMBOL        XBR1
  D:00E3H         SYMBOL        XBR2
  C:146AH         LINE#         34
  C:146DH         LINE#         38
  C:146FH         LINE#         40
  C:1471H         LINE#         44
  C:1474H         LINE#         46
  C:1475H         LINE#         54
  C:1477H         LINE#         55
  C:1478H         LINE#         63
  C:147AH         LINE#         64
  C:147DH         LINE#         65
  C:147EH         LINE#         76
  C:1480H         LINE#         78
  C:1482H         LINE#         79
  C:1484H         LINE#         82
  C:1486H         LINE#         83
  C:1488H         LINE#         85
BL51 BANKED LINKER/LOCATER V6.22.4.0                                                  01/10/2026  10:26:27  PAGE 52


  C:148AH         LINE#         86
  C:148BH         LINE#         96
  C:148DH         LINE#         102
  C:1490H         LINE#         104
  -------         ENDMOD        TIMER2

  -------         MODULE        CONFIGURATIONTASK
  C:09BCH         SEGMENT       CONFIGURATION
  C:0A3EH         PUBLIC        CONFIGURATIONTASK_HANDLER
  C:0A20H         PUBLIC        CONFIGURATIONTASK_INIT
  C:0D46H         PUBLIC        PASS_VERIFY_PASSWORD
  D:00F0H         SYMBOL        B
  C:09E2H         SYMBOL        BITMASK_TABLE
  N:005AH         SYMBOL        BLINK_TIMER
  N:005BH         SYMBOL        BLINK_TOGGLE
  C:0AD9H         SYMBOL        CCC_51
  C:0AE0H         SYMBOL        CCC_52
  C:0AE7H         SYMBOL        CCC_53
  C:0AEEH         SYMBOL        CCC_54
  C:0B04H         SYMBOL        CCC_DELAY_INNER
  C:0B02H         SYMBOL        CCC_DELAY_LOOP
  C:0B00H         SYMBOL        CCC_DELAY_OUTER
  C:0AF9H         SYMBOL        CCC_ERROR
  C:0AF5H         SYMBOL        CCC_OK
  C:0A6AH         SYMBOL        CHECK_NEW_PASS_ST
  C:0A47H         SYMBOL        CHECK_OPT1
  C:0A4EH         SYMBOL        CHECK_OPT2
  C:0A55H         SYMBOL        CHECK_OPT3
  C:0A5CH         SYMBOL        CHECK_PASS
  C:0A63H         SYMBOL        CHECK_RESET_CHOICE
  C:0D13H         SYMBOL        CNP_INIT
  C:0D12H         SYMBOL        CNP_RET
  C:0ACFH         SYMBOL        CONF_CHECK_COMPLETION
  C:0A71H         SYMBOL        CONF_DEFAULT
  C:0A7CH         SYMBOL        CONF_INIT
  C:0A75H         SYMBOL        CONF_MAIN_HANDLER
  C:0A8BH         SYMBOL        CONF_MODE
  C:0AA6H         SYMBOL        CONF_MODE_CHECK_2
  C:0AB0H         SYMBOL        CONF_MODE_CHECK_3
  C:0ABAH         SYMBOL        CONF_MODE_CHECK_4
  C:0AC4H         SYMBOL        CONF_MODE_CHECK_A
  C:0A98H         SYMBOL        CONF_MODE_CHECK_KEY
  C:0ACBH         SYMBOL        CONF_MODE_IGNORE
  C:0A92H         SYMBOL        CONF_MODE_KEYS
  C:0CF3H         SYMBOL        CONF_NEW_PASS_HANDLER
  C:0B0EH         SYMBOL        CONF_OPT1_HANDLER
  C:0B57H         SYMBOL        CONF_OPT1_INIT
  C:0B31H         SYMBOL        CONF_OPT1_INPUT_BACKSPACE_LIMIT
  C:0B3FH         SYMBOL        CONF_OPT1_INPUT_CHECK_CONFIRM
  C:0B2BH         SYMBOL        CONF_OPT1_INPUT_DEC
  C:0B2DH         SYMBOL        CONF_OPT1_INPUT_DONE
  C:0B1BH         SYMBOL        CONF_OPT1_INPUT_HANDLE_KEY
  C:0B1AH         SYMBOL        CONF_OPT1_INPUT_MODE
  C:0B53H         SYMBOL        CONF_OPT1_INPUT_SKIP_CONFIRM
  C:0B64H         SYMBOL        CONF_OPT2_HANDLER
  C:0BADH         SYMBOL        CONF_OPT2_INIT
  C:0B87H         SYMBOL        CONF_OPT2_INPUT_BACKSPACE_LIMIT
BL51 BANKED LINKER/LOCATER V6.22.4.0                                                  01/10/2026  10:26:27  PAGE 53


  C:0B95H         SYMBOL        CONF_OPT2_INPUT_CHECK_CONFIRM
  C:0B81H         SYMBOL        CONF_OPT2_INPUT_DEC
  C:0B83H         SYMBOL        CONF_OPT2_INPUT_DONE
  C:0B71H         SYMBOL        CONF_OPT2_INPUT_HANDLE_KEY
  C:0B70H         SYMBOL        CONF_OPT2_INPUT_MODE
  C:0BA9H         SYMBOL        CONF_OPT2_INPUT_SKIP_CONFIRM
  C:0BBAH         SYMBOL        CONF_OPT3_HANDLER
  C:0BFFH         SYMBOL        CONF_OPT3_INIT
  C:0BDDH         SYMBOL        CONF_OPT3_INPUT_BACKSPACE_LIMIT
  C:0BEBH         SYMBOL        CONF_OPT3_INPUT_CHECK_CONFIRM
  C:0BD7H         SYMBOL        CONF_OPT3_INPUT_DEC
  C:0BD9H         SYMBOL        CONF_OPT3_INPUT_DONE
  C:0BC7H         SYMBOL        CONF_OPT3_INPUT_HANDLE_KEY
  C:0BC6H         SYMBOL        CONF_OPT3_INPUT_MODE
  C:0BFBH         SYMBOL        CONF_OPT3_INPUT_SKIP_CONFIRM
  C:0C29H         SYMBOL        CONF_PASS_BACKSPACE_LIMIT
  C:0C87H         SYMBOL        CONF_PASS_CONFIRM_INCOMPLETE
  C:0C80H         SYMBOL        CONF_PASS_DO_VERIFY
  C:0C0FH         SYMBOL        CONF_PASS_HANDLER
  C:0C1BH         SYMBOL        CONF_PASS_HANDLE_KEY
  C:0C38H         SYMBOL        CONF_PASS_INIT
  C:0C69H         SYMBOL        CONF_PASS_MODE
  C:0C6FH         SYMBOL        CONF_PASS_MODE_CHECK_KEY
  C:0C8EH         SYMBOL        CONF_PASS_MODE_SKIP_CONFIRM
  C:0C92H         SYMBOL        CONF_RESET_CHOICE_HANDLER
  C:0CA9H         SYMBOL        CRC_CHK_2
  C:0CB6H         SYMBOL        CRC_CHK_A
  C:0CC0H         SYMBOL        CRC_IGNORE
  C:0CC4H         SYMBOL        CRC_INIT
  C:0CC3H         SYMBOL        CRC_RET
  N:0068H         SYMBOL        CURRENT_PASS
  N:0056H         SYMBOL        CUR_FLR
  N:0067H         SYMBOL        DEBUG_ON
  N:0022H         SYMBOL        ELEV_ARRIVED
  N:0023H         SYMBOL        ELEV_CLOSE
  N:0064H         SYMBOL        ELEV_DIR
  N:0021H         SYMBOL        ELEV_RUN
  N:0020H         SYMBOL        ELEV_ST
  N:0058H         SYMBOL        ELEV_TARGET
  N:0057H         SYMBOL        ELEV_TIMER
  N:0063H         SYMBOL        EXT_DN_HI
  N:0062H         SYMBOL        EXT_DN_LO
  N:005FH         SYMBOL        EXT_UP_HI
  N:005EH         SYMBOL        EXT_UP_LO
  N:0065H         SYMBOL        INPUT_MODE
  N:005DH         SYMBOL        INT_REQ_HI
  N:005CH         SYMBOL        INT_REQ_LO
  C:09FEH         SYMBOL        LCD_MSG_CHOICE
  C:09EDH         SYMBOL        LCD_MSG_CONFIG
  C:0A0FH         SYMBOL        LCD_MSG_NEWPASS
  N:0004H         SYMBOL        NEW_PASS_ST
  N:0059H         SYMBOL        ONE_SEC_CNT
  N:0011H         SYMBOL        OPT1_ST
  N:0012H         SYMBOL        OPT2_ST
  N:0013H         SYMBOL        OPT3_ST
  N:0001H         SYMBOL        OPT_ST
  N:0066H         SYMBOL        OUT_SEL_VAL
BL51 BANKED LINKER/LOCATER V6.22.4.0                                                  01/10/2026  10:26:27  PAGE 54


  C:09E8H         SYMBOL        PASSWORD_TABLE
  C:0A36H         SYMBOL        PASS_COPY_LOOP
  C:0D74H         SYMBOL        PASS_ERROR_DELAY_INNER
  C:0D72H         SYMBOL        PASS_ERROR_DELAY_LOOP
  C:0D70H         SYMBOL        PASS_ERROR_DELAY_OUTER
  C:0D87H         SYMBOL        PASS_ERROR_LOCKED
  N:006DH         SYMBOL        PASS_NEXT_ST
  C:0D5FH         SYMBOL        PASS_SHOW_ERROR
  C:0D8EH         SYMBOL        PASS_SHOW_SUCCESS
  N:0002H         SYMBOL        PASS_ST
  C:0D5BH         SYMBOL        PASS_VERIFY_FAIL
  C:0D4CH         SYMBOL        PASS_VERIFY_LOOP
  C:0CEBH         SYMBOL        RDP_LOOP
  N:0003H         SYMBOL        RESET_CHOICE_ST
  C:0CE4H         SYMBOL        RESTORE_DEFAULT_PASS
  N:0000H         SYMBOL        RUN_ST
  C:0D39H         SYMBOL        SAVE_NEW_PASS
  C:09BCH         SYMBOL        SEG_TABLE
  C:0D3FH         SYMBOL        SNP_LOOP
  C:0A20H         LINE#         25
  C:0A23H         LINE#         26
  C:0A26H         LINE#         27
  C:0A29H         LINE#         28
  C:0A2CH         LINE#         29
  C:0A2FH         LINE#         32
  C:0A32H         LINE#         33
  C:0A34H         LINE#         34
  C:0A36H         LINE#         36
  C:0A37H         LINE#         37
  C:0A38H         LINE#         38
  C:0A39H         LINE#         39
  C:0A3AH         LINE#         40
  C:0A3BH         LINE#         41
  C:0A3DH         LINE#         43
  C:0A3EH         LINE#         47
  C:0A40H         LINE#         48
  C:0A43H         LINE#         49
  C:0A46H         LINE#         50
  C:0A47H         LINE#         52
  C:0A4AH         LINE#         53
  C:0A4DH         LINE#         54
  C:0A4EH         LINE#         56
  C:0A51H         LINE#         57
  C:0A54H         LINE#         58
  C:0A55H         LINE#         60
  C:0A58H         LINE#         61
  C:0A5BH         LINE#         62
  C:0A5CH         LINE#         64
  C:0A5FH         LINE#         65
  C:0A62H         LINE#         66
  C:0A63H         LINE#         68
  C:0A66H         LINE#         69
  C:0A69H         LINE#         70
  C:0A6AH         LINE#         72
  C:0A6DH         LINE#         73
  C:0A70H         LINE#         74
  C:0A71H         LINE#         77
BL51 BANKED LINKER/LOCATER V6.22.4.0                                                  01/10/2026  10:26:27  PAGE 55


  C:0A74H         LINE#         78
  C:0A75H         LINE#         82
  C:0A77H         LINE#         83
  C:0A7AH         LINE#         84
  C:0A7CH         LINE#         87
  C:0A7EH         LINE#         88
  C:0A80H         LINE#         89
  C:0A83H         LINE#         90
  C:0A86H         LINE#         91
  C:0A89H         LINE#         92
  C:0A8BH         LINE#         95
  C:0A8DH         LINE#         96
  C:0A90H         LINE#         97
  C:0A92H         LINE#         101
  C:0A94H         LINE#         102
  C:0A97H         LINE#         103
  C:0A98H         LINE#         105
  C:0A9AH         LINE#         106
  C:0A9CH         LINE#         107
  C:0A9FH         LINE#         108
  C:0AA2H         LINE#         109
  C:0AA5H         LINE#         110
  C:0AA6H         LINE#         112
  C:0AA9H         LINE#         113
  C:0AACH         LINE#         114
  C:0AAFH         LINE#         115
  C:0AB0H         LINE#         117
  C:0AB3H         LINE#         118
  C:0AB6H         LINE#         119
  C:0AB9H         LINE#         120
  C:0ABAH         LINE#         122
  C:0ABDH         LINE#         123
  C:0AC0H         LINE#         124
  C:0AC3H         LINE#         125
  C:0AC4H         LINE#         127
  C:0AC7H         LINE#         128
  C:0ACAH         LINE#         129
  C:0ACBH         LINE#         131
  C:0ACEH         LINE#         132
  C:0ACFH         LINE#         135
  C:0AD2H         LINE#         137
  C:0AD4H         LINE#         138
  C:0AD7H         LINE#         139
  C:0AD9H         LINE#         141
  C:0ADBH         LINE#         142
  C:0ADEH         LINE#         143
  C:0AE0H         LINE#         145
  C:0AE2H         LINE#         146
  C:0AE5H         LINE#         147
  C:0AE7H         LINE#         149
  C:0AE9H         LINE#         150
  C:0AECH         LINE#         151
  C:0AEEH         LINE#         153
  C:0AF0H         LINE#         154
  C:0AF3H         LINE#         155
  C:0AF5H         LINE#         158
  C:0AF8H         LINE#         159
BL51 BANKED LINKER/LOCATER V6.22.4.0                                                  01/10/2026  10:26:27  PAGE 56


  C:0AF9H         LINE#         163
  C:0AFBH         LINE#         164
  C:0AFEH         LINE#         166
  C:0B00H         LINE#         168
  C:0B02H         LINE#         170
  C:0B04H         LINE#         172
  C:0B05H         LINE#         173
  C:0B06H         LINE#         174
  C:0B07H         LINE#         175
  C:0B09H         LINE#         176
  C:0B0BH         LINE#         177
  C:0B0DH         LINE#         178
  C:0B0EH         LINE#         184
  C:0B10H         LINE#         185
  C:0B13H         LINE#         186
  C:0B15H         LINE#         187
  C:0B18H         LINE#         188
  C:0B1AH         LINE#         191
  C:0B1BH         LINE#         194
  C:0B1EH         LINE#         195
  C:0B21H         LINE#         196
  C:0B24H         LINE#         197
  C:0B27H         LINE#         199
  C:0B2AH         LINE#         200
  C:0B2BH         LINE#         203
  C:0B2DH         LINE#         206
  C:0B30H         LINE#         207
  C:0B31H         LINE#         210
  C:0B34H         LINE#         211
  C:0B36H         LINE#         212
  C:0B38H         LINE#         213
  C:0B39H         LINE#         214
  C:0B3BH         LINE#         215
  C:0B3EH         LINE#         216
  C:0B3FH         LINE#         219
  C:0B41H         LINE#         220
  C:0B44H         LINE#         221
  C:0B46H         LINE#         222
  C:0B48H         LINE#         223
  C:0B4AH         LINE#         224
  C:0B4CH         LINE#         225
  C:0B4FH         LINE#         226
  C:0B52H         LINE#         227
  C:0B53H         LINE#         230
  C:0B56H         LINE#         231
  C:0B57H         LINE#         234
  C:0B59H         LINE#         235
  C:0B5BH         LINE#         236
  C:0B5DH         LINE#         237
  C:0B60H         LINE#         238
  C:0B63H         LINE#         239
  C:0B64H         LINE#         245
  C:0B66H         LINE#         246
  C:0B69H         LINE#         247
  C:0B6BH         LINE#         248
  C:0B6EH         LINE#         249
  C:0B70H         LINE#         252
BL51 BANKED LINKER/LOCATER V6.22.4.0                                                  01/10/2026  10:26:27  PAGE 57


  C:0B71H         LINE#         255
  C:0B74H         LINE#         256
  C:0B77H         LINE#         257
  C:0B7AH         LINE#         258
  C:0B7DH         LINE#         259
  C:0B80H         LINE#         260
  C:0B81H         LINE#         263
  C:0B83H         LINE#         266
  C:0B86H         LINE#         267
  C:0B87H         LINE#         270
  C:0B8AH         LINE#         271
  C:0B8CH         LINE#         272
  C:0B8EH         LINE#         273
  C:0B8FH         LINE#         274
  C:0B91H         LINE#         275
  C:0B94H         LINE#         276
  C:0B95H         LINE#         279
  C:0B97H         LINE#         280
  C:0B9AH         LINE#         281
  C:0B9CH         LINE#         282
  C:0B9EH         LINE#         283
  C:0BA0H         LINE#         284
  C:0BA2H         LINE#         285
  C:0BA5H         LINE#         286
  C:0BA8H         LINE#         287
  C:0BA9H         LINE#         290
  C:0BACH         LINE#         291
  C:0BADH         LINE#         294
  C:0BAFH         LINE#         295
  C:0BB1H         LINE#         296
  C:0BB3H         LINE#         297
  C:0BB6H         LINE#         298
  C:0BB9H         LINE#         299
  C:0BBAH         LINE#         305
  C:0BBCH         LINE#         306
  C:0BBFH         LINE#         307
  C:0BC1H         LINE#         308
  C:0BC4H         LINE#         309
  C:0BC6H         LINE#         312
  C:0BC7H         LINE#         315
  C:0BCAH         LINE#         316
  C:0BCDH         LINE#         317
  C:0BD0H         LINE#         318
  C:0BD3H         LINE#         319
  C:0BD6H         LINE#         320
  C:0BD7H         LINE#         323
  C:0BD9H         LINE#         326
  C:0BDCH         LINE#         327
  C:0BDDH         LINE#         330
  C:0BE0H         LINE#         331
  C:0BE2H         LINE#         332
  C:0BE4H         LINE#         333
  C:0BE5H         LINE#         334
  C:0BE7H         LINE#         335
  C:0BEAH         LINE#         336
  C:0BEBH         LINE#         339
  C:0BEDH         LINE#         340
BL51 BANKED LINKER/LOCATER V6.22.4.0                                                  01/10/2026  10:26:27  PAGE 58


  C:0BF0H         LINE#         341
  C:0BF2H         LINE#         342
  C:0BF4H         LINE#         343
  C:0BF7H         LINE#         344
  C:0BFAH         LINE#         345
  C:0BFBH         LINE#         348
  C:0BFEH         LINE#         349
  C:0BFFH         LINE#         352
  C:0C01H         LINE#         353
  C:0C03H         LINE#         354
  C:0C06H         LINE#         355
  C:0C08H         LINE#         356
  C:0C0BH         LINE#         357
  C:0C0EH         LINE#         358
  C:0C0FH         LINE#         364
  C:0C11H         LINE#         365
  C:0C14H         LINE#         366
  C:0C16H         LINE#         367
  C:0C19H         LINE#         368
  C:0C1BH         LINE#         371
  C:0C1EH         LINE#         372
  C:0C21H         LINE#         373
  C:0C24H         LINE#         374
  C:0C27H         LINE#         375
  C:0C29H         LINE#         378
  C:0C2CH         LINE#         379
  C:0C2EH         LINE#         380
  C:0C30H         LINE#         381
  C:0C31H         LINE#         382
  C:0C33H         LINE#         383
  C:0C36H         LINE#         384
  C:0C38H         LINE#         387
  C:0C3AH         LINE#         388
  C:0C3CH         LINE#         389
  C:0C3FH         LINE#         392
  C:0C41H         LINE#         393
  C:0C44H         LINE#         396
  C:0C47H         LINE#         397
  C:0C4AH         LINE#         398
  C:0C4DH         LINE#         402
  C:0C50H         LINE#         403
  C:0C53H         LINE#         404
  C:0C56H         LINE#         405
  C:0C59H         LINE#         406
  C:0C5CH         LINE#         407
  C:0C5FH         LINE#         410
  C:0C62H         LINE#         412
  C:0C65H         LINE#         413
  C:0C68H         LINE#         414
  C:0C69H         LINE#         417
  C:0C6BH         LINE#         418
  C:0C6EH         LINE#         419
  C:0C6FH         LINE#         422
  C:0C71H         LINE#         423
  C:0C74H         LINE#         424
  C:0C76H         LINE#         425
  C:0C79H         LINE#         426
BL51 BANKED LINKER/LOCATER V6.22.4.0                                                  01/10/2026  10:26:27  PAGE 59


  C:0C7BH         LINE#         427
  C:0C7EH         LINE#         428
  C:0C80H         LINE#         431
  C:0C83H         LINE#         432
  C:0C86H         LINE#         433
  C:0C87H         LINE#         436
  C:0C8AH         LINE#         437
  C:0C8DH         LINE#         438
  C:0C8EH         LINE#         441
  C:0C91H         LINE#         442
  C:0C92H         LINE#         448
  C:0C94H         LINE#         449
  C:0C97H         LINE#         452
  C:0C99H         LINE#         453
  C:0C9BH         LINE#         454
  C:0C9DH         LINE#         455
  C:0C9FH         LINE#         457
  C:0CA2H         LINE#         459
  C:0CA5H         LINE#         460
  C:0CA8H         LINE#         461
  C:0CA9H         LINE#         464
  C:0CACH         LINE#         466
  C:0CAFH         LINE#         467
  C:0CB2H         LINE#         468
  C:0CB5H         LINE#         469
  C:0CB6H         LINE#         472
  C:0CB9H         LINE#         474
  C:0CBCH         LINE#         475
  C:0CBFH         LINE#         476
  C:0CC0H         LINE#         479
  C:0CC3H         LINE#         481
  C:0CC4H         LINE#         484
  C:0CC6H         LINE#         485
  C:0CC8H         LINE#         487
  C:0CCBH         LINE#         488
  C:0CCEH         LINE#         489
  C:0CD1H         LINE#         492
  C:0CD4H         LINE#         493
  C:0CD7H         LINE#         494
  C:0CDAH         LINE#         495
  C:0CDDH         LINE#         496
  C:0CE0H         LINE#         497
  C:0CE3H         LINE#         498
  C:0CE4H         LINE#         502
  C:0CE7H         LINE#         503
  C:0CE9H         LINE#         504
  C:0CEBH         LINE#         506
  C:0CECH         LINE#         507
  C:0CEDH         LINE#         508
  C:0CEEH         LINE#         509
  C:0CEFH         LINE#         510
  C:0CF0H         LINE#         511
  C:0CF2H         LINE#         512
  C:0CF3H         LINE#         518
  C:0CF5H         LINE#         519
  C:0CF8H         LINE#         522
  C:0CFAH         LINE#         523
BL51 BANKED LINKER/LOCATER V6.22.4.0                                                  01/10/2026  10:26:27  PAGE 60


  C:0CFCH         LINE#         528
  C:0CFFH         LINE#         529
  C:0D02H         LINE#         530
  C:0D05H         LINE#         533
  C:0D08H         LINE#         536
  C:0D0BH         LINE#         537
  C:0D0EH         LINE#         538
  C:0D11H         LINE#         539
  C:0D12H         LINE#         542
  C:0D13H         LINE#         545
  C:0D15H         LINE#         546
  C:0D17H         LINE#         548
  C:0D1AH         LINE#         549
  C:0D1DH         LINE#         550
  C:0D20H         LINE#         553
  C:0D23H         LINE#         554
  C:0D26H         LINE#         555
  C:0D29H         LINE#         556
  C:0D2CH         LINE#         557
  C:0D2FH         LINE#         558
  C:0D32H         LINE#         560
  C:0D35H         LINE#         561
  C:0D38H         LINE#         562
  C:0D39H         LINE#         565
  C:0D3BH         LINE#         566
  C:0D3DH         LINE#         567
  C:0D3FH         LINE#         569
  C:0D40H         LINE#         570
  C:0D41H         LINE#         571
  C:0D42H         LINE#         572
  C:0D43H         LINE#         573
  C:0D45H         LINE#         574
  C:0D46H         LINE#         580
  C:0D48H         LINE#         581
  C:0D4AH         LINE#         582
  C:0D4CH         LINE#         585
  C:0D4DH         LINE#         586
  C:0D4FH         LINE#         587
  C:0D50H         LINE#         588
  C:0D53H         LINE#         590
  C:0D54H         LINE#         591
  C:0D55H         LINE#         592
  C:0D57H         LINE#         594
  C:0D5AH         LINE#         595
  C:0D5BH         LINE#         598
  C:0D5EH         LINE#         599
  C:0D5FH         LINE#         602
  C:0D61H         LINE#         603
  C:0D63H         LINE#         604
  C:0D65H         LINE#         607
  C:0D67H         LINE#         608
  C:0D6AH         LINE#         609
  C:0D6CH         LINE#         610
  C:0D6EH         LINE#         612
  C:0D70H         LINE#         614
  C:0D72H         LINE#         616
  C:0D74H         LINE#         618
BL51 BANKED LINKER/LOCATER V6.22.4.0                                                  01/10/2026  10:26:27  PAGE 61


  C:0D75H         LINE#         619
  C:0D76H         LINE#         620
  C:0D77H         LINE#         621
  C:0D79H         LINE#         622
  C:0D7BH         LINE#         623
  C:0D7DH         LINE#         625
  C:0D80H         LINE#         628
  C:0D83H         LINE#         629
  C:0D86H         LINE#         630
  C:0D87H         LINE#         633
  C:0D89H         LINE#         634
  C:0D8CH         LINE#         635
  C:0D8EH         LINE#         638
  C:0D91H         LINE#         639
  C:0D92H         LINE#         642
  -------         ENDMOD        CONFIGURATIONTASK

  -------         MODULE        INPUTTASK
  C:1145H         SEGMENT       INPUT
  C:11CBH         PUBLIC        INPUTTASK_039
  C:1176H         PUBLIC        INPUTTASK_03B
  D:00E0H         SYMBOL        ACC
  D:00F0H         SYMBOL        B
  C:116BH         SYMBOL        BITMASK_TABLE
  N:005AH         SYMBOL        BLINK_TIMER
  N:005BH         SYMBOL        BLINK_TOGGLE
  N:0068H         SYMBOL        CURRENT_PASS
  N:0056H         SYMBOL        CUR_FLR
  N:0067H         SYMBOL        DEBUG_ON
  D:0083H         SYMBOL        DPH
  D:0082H         SYMBOL        DPL
  N:0022H         SYMBOL        ELEV_ARRIVED
  N:0023H         SYMBOL        ELEV_CLOSE
  N:0064H         SYMBOL        ELEV_DIR
  N:0021H         SYMBOL        ELEV_RUN
  N:0020H         SYMBOL        ELEV_ST
  N:0058H         SYMBOL        ELEV_TARGET
  N:0057H         SYMBOL        ELEV_TIMER
  N:0063H         SYMBOL        EXT_DN_HI
  N:0062H         SYMBOL        EXT_DN_LO
  N:005FH         SYMBOL        EXT_UP_HI
  N:005EH         SYMBOL        EXT_UP_LO
  N:0065H         SYMBOL        INPUT_MODE
  N:005DH         SYMBOL        INT_REQ_HI
  N:005CH         SYMBOL        INT_REQ_LO
  C:1214H         SYMBOL        L2_BK_CLEAR_CURRENT
  C:120DH         SYMBOL        L2_BK_DEC
  C:1216H         SYMBOL        L2_BK_DONE
  C:11FAH         SYMBOL        L2_CHECK_BK
  C:121EH         SYMBOL        L2_DIGIT
  C:1232H         SYMBOL        L2_DIGIT_DONE
  C:123AH         SYMBOL        L2_DIGIT_IGNORED
  C:1230H         SYMBOL        L2_INC_CURSOR
  C:11F5H         SYMBOL        L2_RETURN_CONFIRM
  C:119DH         SYMBOL        L_BACK_CLEAR_CURRENT
  C:1196H         SYMBOL        L_BACK_DEC
  C:119FH         SYMBOL        L_BACK_DONE
BL51 BANKED LINKER/LOCATER V6.22.4.0                                                  01/10/2026  10:26:27  PAGE 62


  C:1183H         SYMBOL        L_CHECK_BK
  C:11A7H         SYMBOL        L_DIGIT
  C:11BBH         SYMBOL        L_DIGIT_DONE
  C:11C3H         SYMBOL        L_DIGIT_IGNORED
  C:11B9H         SYMBOL        L_INC_CURSOR
  N:0004H         SYMBOL        NEW_PASS_ST
  N:0059H         SYMBOL        ONE_SEC_CNT
  N:0011H         SYMBOL        OPT1_ST
  N:0012H         SYMBOL        OPT2_ST
  N:0013H         SYMBOL        OPT3_ST
  N:0001H         SYMBOL        OPT_ST
  N:0066H         SYMBOL        OUT_SEL_VAL
  C:1171H         SYMBOL        PASSWORD_TABLE
  N:006DH         SYMBOL        PASS_NEXT_ST
  N:0002H         SYMBOL        PASS_ST
  N:0003H         SYMBOL        RESET_CHOICE_ST
  N:0000H         SYMBOL        RUN_ST
  C:1145H         SYMBOL        SEG_TABLE
  C:1176H         LINE#         24
  C:1178H         LINE#         26
  C:117AH         LINE#         27
  C:117CH         LINE#         28
  C:117DH         LINE#         30
  C:1180H         LINE#         32
  C:1182H         LINE#         33
  C:1183H         LINE#         36
  C:1186H         LINE#         38
  C:1188H         LINE#         39
  C:118AH         LINE#         40
  C:118BH         LINE#         41
  C:118CH         LINE#         42
  C:118FH         LINE#         45
  C:1191H         LINE#         46
  C:1194H         LINE#         47
  C:1196H         LINE#         50
  C:1198H         LINE#         51
  C:119AH         LINE#         52
  C:119CH         LINE#         53
  C:119DH         LINE#         57
  C:119FH         LINE#         60
  C:11A2H         LINE#         61
  C:11A4H         LINE#         62
  C:11A6H         LINE#         63
  C:11A7H         LINE#         67
  C:11A9H         LINE#         68
  C:11ABH         LINE#         69
  C:11ACH         LINE#         70
  C:11ADH         LINE#         71
  C:11B0H         LINE#         73
  C:11B1H         LINE#         74
  C:11B2H         LINE#         76
  C:11B4H         LINE#         77
  C:11B7H         LINE#         78
  C:11B9H         LINE#         80
  C:11BBH         LINE#         82
  C:11BEH         LINE#         83
  C:11C0H         LINE#         84
BL51 BANKED LINKER/LOCATER V6.22.4.0                                                  01/10/2026  10:26:27  PAGE 63


  C:11C2H         LINE#         85
  C:11C3H         LINE#         87
  C:11C6H         LINE#         88
  C:11C8H         LINE#         89
  C:11CAH         LINE#         90
  C:11CBH         LINE#         94
  C:11CDH         LINE#         96
  C:11CFH         LINE#         97
  C:11D1H         LINE#         98
  C:11D2H         LINE#         100
  C:11D5H         LINE#         102
  C:11D7H         LINE#         103
  C:11DAH         LINE#         105
  C:11DCH         LINE#         106
  C:11DEH         LINE#         107
  C:11E0H         LINE#         108
  C:11E2H         LINE#         109
  C:11E5H         LINE#         110
  C:11E7H         LINE#         111
  C:11E9H         LINE#         112
  C:11EBH         LINE#         113
  C:11EDH         LINE#         115
  C:11F0H         LINE#         116
  C:11F2H         LINE#         117
  C:11F4H         LINE#         118
  C:11F5H         LINE#         121
  C:11F7H         LINE#         122
  C:11F9H         LINE#         123
  C:11FAH         LINE#         126
  C:11FDH         LINE#         129
  C:11FFH         LINE#         130
  C:1201H         LINE#         131
  C:1202H         LINE#         132
  C:1203H         LINE#         133
  C:1206H         LINE#         136
  C:1208H         LINE#         137
  C:120BH         LINE#         139
  C:120DH         LINE#         142
  C:120FH         LINE#         143
  C:1211H         LINE#         144
  C:1213H         LINE#         145
  C:1214H         LINE#         149
  C:1216H         LINE#         152
  C:1219H         LINE#         153
  C:121BH         LINE#         154
  C:121DH         LINE#         155
  C:121EH         LINE#         159
  C:1220H         LINE#         160
  C:1222H         LINE#         161
  C:1223H         LINE#         162
  C:1224H         LINE#         163
  C:1227H         LINE#         166
  C:1228H         LINE#         167
  C:1229H         LINE#         170
  C:122BH         LINE#         171
  C:122EH         LINE#         172
  C:1230H         LINE#         175
BL51 BANKED LINKER/LOCATER V6.22.4.0                                                  01/10/2026  10:26:27  PAGE 64


  C:1232H         LINE#         178
  C:1235H         LINE#         179
  C:1237H         LINE#         180
  C:1239H         LINE#         181
  C:123AH         LINE#         184
  C:123DH         LINE#         185
  C:123FH         LINE#         186
  C:1241H         LINE#         187
  -------         ENDMOD        INPUTTASK

  -------         MODULE        RUNNINGTASK
  C:02AAH         SEGMENT       RUNNING
  C:037EH         PUBLIC        RUNNINGTASK_HANDLER
  C:034AH         PUBLIC        RUNNINGTASK_INIT
  D:00E0H         SYMBOL        ACC
  C:0511H         SYMBOL        ARR_NEG
  C:02D0H         SYMBOL        BITMASK_TABLE
  C:0755H         SYMBOL        BIT_MASK_TBL
  N:005AH         SYMBOL        BLINK_TIMER
  N:005BH         SYMBOL        BLINK_TOGGLE
  C:0682H         SYMBOL        CASR_CHK_MODE
  C:06CFH         SYMBOL        CASR_CONSUME
  C:064DH         SYMBOL        CASR_HAS_KEY
  C:0695H         SYMBOL        CASR_IN_CHK_F
  C:0690H         SYMBOL        CASR_IN_CHK_OTHER
  C:065CH         SYMBOL        CASR_NORMAL
  C:069AH         SYMBOL        CASR_OUTSIDE_MODE
  C:06C5H         SYMBOL        CASR_OUT_CHK_CD
  C:06CAH         SYMBOL        CASR_OUT_CHK_D
  C:06B4H         SYMBOL        CASR_OUT_CHK_F
  C:06A8H         SYMBOL        CASR_OUT_CHK_OTHER
  C:06BEH         SYMBOL        CASR_OUT_SHOW
  C:06D2H         SYMBOL        CASR_RET
  C:0675H         SYMBOL        CASR_SHOW_INSIDE
  C:077CH         SYMBOL        CFR_HI
  C:07DEH         SYMBOL        CFR_HI_CHK_DN
  C:07D4H         SYMBOL        CFR_HI_CHK_UP
  C:07B9H         SYMBOL        CFR_LO_CHK_DN
  C:07AFH         SYMBOL        CFR_LO_CHK_UP
  C:0648H         SYMBOL        CHECK_AND_SET_REQUEST
  C:03CDH         SYMBOL        CHECK_ELEV_ARR
  C:03D4H         SYMBOL        CHECK_ELEV_CLOSE
  C:03BFH         SYMBOL        CHECK_ELEV_RUN
  C:03C6H         SYMBOL        CHECK_ELEV_RUN2
  C:0797H         SYMBOL        CHECK_FLOOR_REQUEST
  C:07E7H         SYMBOL        CHKFR_FOUND
  C:07C0H         SYMBOL        CHKFR_HI
  C:07E5H         SYMBOL        CHKFR_NOTFOUND
  C:075DH         SYMBOL        CLEAR_FLOOR_REQUEST
  N:0068H         SYMBOL        CURRENT_PASS
  N:0056H         SYMBOL        CUR_FLR
  N:0067H         SYMBOL        DEBUG_ON
  C:04EAH         SYMBOL        EA_BLINK_LOGIC
  C:04C4H         SYMBOL        EA_CHECK_INIT
  C:04C5H         SYMBOL        EA_CHECK_INIT_OK
  C:0522H         SYMBOL        EA_CHECK_MOVE
  C:04E5H         SYMBOL        EA_CHECK_REQ
BL51 BANKED LINKER/LOCATER V6.22.4.0                                                  01/10/2026  10:26:27  PAGE 65


  C:051BH         SYMBOL        EA_INIT
  C:04F9H         SYMBOL        EA_OFF
  C:052BH         SYMBOL        EA_OFFSET_UPDATE
  C:0526H         SYMBOL        EA_PLAY_SOUND
  C:04FFH         SYMBOL        EA_TAIL
  C:0439H         SYMBOL        ECP_EXEC
  C:0437H         SYMBOL        ECP_GO_8
  C:0441H         SYMBOL        ECP_MOVE
  C:0431H         SYMBOL        ECP_TEST
  C:0573H         SYMBOL        EC_BLINK_LOGIC
  C:0558H         SYMBOL        EC_CHECK_CUR
  C:0545H         SYMBOL        EC_CHECK_INIT
  C:0546H         SYMBOL        EC_CHECK_INIT_OK
  C:056EH         SYMBOL        EC_CHECK_REQ
  C:0595H         SYMBOL        EC_INIT
  C:0582H         SYMBOL        EC_OFF
  C:055BH         SYMBOL        EC_REOPEN
  C:0588H         SYMBOL        EC_TAIL
  C:03F1H         SYMBOL        EH_CHECK_CUR_FL
  C:03FDH         SYMBOL        EH_OPEN_NOW
  C:0410H         SYMBOL        EH_SCAN
  N:0022H         SYMBOL        ELEV_ARRIVED
  C:04BDH         SYMBOL        ELEV_ARRIVED_HANDLER
  C:0428H         SYMBOL        ELEV_CHECK_PARK
  N:0023H         SYMBOL        ELEV_CLOSE
  C:053EH         SYMBOL        ELEV_CLOSE_HANDLER
  C:044EH         SYMBOL        ELEV_DIFF
  N:0064H         SYMBOL        ELEV_DIR
  C:03DCH         SYMBOL        ELEV_HANDLER
  C:0443H         SYMBOL        ELEV_INIT
  C:041EH         SYMBOL        ELEV_NO_REQ
  N:0021H         SYMBOL        ELEV_RUN
  C:0493H         SYMBOL        ELEV_RUN_HANDLER
  N:0020H         SYMBOL        ELEV_ST
  C:0426H         SYMBOL        ELEV_START_MOVE
  N:0058H         SYMBOL        ELEV_TARGET
  N:0057H         SYMBOL        ELEV_TIMER
  C:04B4H         SYMBOL        ER_CHK_INT_KEY
  C:04B8H         SYMBOL        ER_INIT
  N:0063H         SYMBOL        EXT_DN_HI
  N:0062H         SYMBOL        EXT_DN_LO
  N:005FH         SYMBOL        EXT_UP_HI
  N:005EH         SYMBOL        EXT_UP_LO
  C:046EH         SYMBOL        E_GO_DOWN
  C:0478H         SYMBOL        E_START
  C:06D3H         SYMBOL        FLOOR_TO_INDEX
  C:06DAH         SYMBOL        FTI_NEG
  C:074EH         SYMBOL        GET_BIT_MASK
  C:05E3H         SYMBOL        GET_FLOOR_FROM_KEY
  C:05FAH         SYMBOL        GFK_INVALID
  C:05F2H         SYMBOL        GFK_KEY_0
  C:05F6H         SYMBOL        GFK_KEY_1
  C:06DEH         SYMBOL        INDEX_TO_FLOOR
  N:0065H         SYMBOL        INPUT_MODE
  N:005DH         SYMBOL        INT_REQ_HI
  N:005CH         SYMBOL        INT_REQ_LO
  C:06E5H         SYMBOL        ITF_CHK1
BL51 BANKED LINKER/LOCATER V6.22.4.0                                                  01/10/2026  10:26:27  PAGE 66


  C:06EBH         SYMBOL        ITF_POS
  C:0323H         SYMBOL        LCD_MSG_CLOSE
  C:0345H         SYMBOL        LCD_MSG_FL
  C:02DBH         SYMBOL        LCD_MSG_INSIDE
  C:0312H         SYMBOL        LCD_MSG_OPEN
  C:0334H         SYMBOL        LCD_MSG_RUN
  C:02ECH         SYMBOL        LCD_MSG_WELCOME
  C:05FCH         SYMBOL        LCD_PRINT_FLOOR
  C:0308H         SYMBOL        LCD_STR_DOWN
  C:030DH         SYMBOL        LCD_STR_EMPTY
  C:02FDH         SYMBOL        LCD_STR_OUT_PREFIX
  C:0303H         SYMBOL        LCD_STR_UP
  C:060CH         SYMBOL        LPF_NEG
  N:0004H         SYMBOL        NEW_PASS_ST
  N:0059H         SYMBOL        ONE_SEC_CNT
  N:0011H         SYMBOL        OPT1_ST
  N:0012H         SYMBOL        OPT2_ST
  N:0013H         SYMBOL        OPT3_ST
  N:0001H         SYMBOL        OPT_ST
  N:0066H         SYMBOL        OUT_SEL_VAL
  C:02D6H         SYMBOL        PASSWORD_TABLE
  N:006DH         SYMBOL        PASS_NEXT_ST
  N:0002H         SYMBOL        PASS_ST
  N:0003H         SYMBOL        RESET_CHOICE_ST
  C:03B8H         SYMBOL        RT_CONFIG_DONE
  C:038FH         SYMBOL        RT_HANDLE_KEY
  C:039FH         SYMBOL        RT_HANDLE_OTHER
  C:03A4H         SYMBOL        RT_INIT
  C:03AAH         SYMBOL        RT_MODE
  C:03DBH         SYMBOL        RT_RETURN
  N:0000H         SYMBOL        RUN_ST
  C:0944H         SYMBOL        SCAN_CHECK_DN_LOOSE
  C:08B0H         SYMBOL        SCAN_CHECK_DN_REQUEST
  C:08E4H         SYMBOL        SCAN_CHECK_DN_STRICT
  C:096AH         SYMBOL        SCAN_CHECK_UP_LOOSE
  C:087CH         SYMBOL        SCAN_CHECK_UP_REQUEST
  C:0914H         SYMBOL        SCAN_CHECK_UP_STRICT
  C:080BH         SYMBOL        SCAN_DEFAULT_UP
  C:0859H         SYMBOL        SCAN_DN_LOOP_LOOSE
  C:0849H         SYMBOL        SCAN_DN_LOOP_STRICT
  C:086BH         SYMBOL        SCAN_DN_LOOSE_DONE
  C:0857H         SYMBOL        SCAN_DN_STRICT_DONE
  C:0875H         SYMBOL        SCAN_FAIL
  C:07E9H         SYMBOL        SCAN_FIND_NEXT_TARGET
  C:087AH         SYMBOL        SCAN_FOUND
  C:07F9H         SYMBOL        SCAN_HAS_REQ
  C:0843H         SYMBOL        SCAN_TRY_DOWN
  C:080EH         SYMBOL        SCAN_TRY_UP
  C:0829H         SYMBOL        SCAN_UP_LOOP_LOOSE
  C:0814H         SYMBOL        SCAN_UP_LOOP_STRICT
  C:0966H         SYMBOL        SCDL_FOUND
  C:0959H         SYMBOL        SCDL_HI
  C:0962H         SYMBOL        SCDL_NOTFOUND
  C:08E0H         SYMBOL        SCDR_FOUND
  C:08CAH         SYMBOL        SCDR_HI
  C:08DCH         SYMBOL        SCDR_NOTFOUND
  C:0910H         SYMBOL        SCDS_FOUND
BL51 BANKED LINKER/LOCATER V6.22.4.0                                                  01/10/2026  10:26:27  PAGE 67


  C:08FEH         SYMBOL        SCDS_HI
  C:090CH         SYMBOL        SCDS_NOTFOUND
  C:098CH         SYMBOL        SCUL_FOUND
  C:097FH         SYMBOL        SCUL_HI
  C:0988H         SYMBOL        SCUL_NOTFOUND
  C:08ACH         SYMBOL        SCUR_FOUND
  C:0896H         SYMBOL        SCUR_HI
  C:08A8H         SYMBOL        SCUR_NOTFOUND
  C:0940H         SYMBOL        SCUS_FOUND
  C:092EH         SYMBOL        SCUS_HI
  C:093CH         SYMBOL        SCUS_NOTFOUND
  C:0740H         SYMBOL        SEDR_HI
  C:02AAH         SYMBOL        SEG_TABLE
  C:072EH         SYMBOL        SET_EXT_DN_REQUEST
  C:070EH         SYMBOL        SET_EXT_UP_REQUEST
  C:06EEH         SYMBOL        SET_INT_REQUEST
  C:0720H         SYMBOL        SEUR_HI
  C:05A3H         SYMBOL        SHOW_OPEN_FLOOR
  C:061AH         SYMBOL        SHOW_OUTSIDE_STATUS
  C:0700H         SYMBOL        SIR_HI
  C:05D9H         SYMBOL        SOF_NEG
  C:0641H         SYMBOL        SOS_NONE
  C:063AH         SYMBOL        SOS_UP
  C:083BH         SYMBOL        SUL_DONE
  C:081DH         SYMBOL        SUS_CHECK
  C:0822H         SYMBOL        SUS_NEXT
  C:099CH         SYMBOL        UCD_NEG
  C:0990H         SYMBOL        UPDATE_CUR_DISPLAY
  C:09A6H         SYMBOL        UPDATE_TGT_DISPLAY
  C:09B2H         SYMBOL        UTD_NEG
  C:034AH         LINE#         39
  C:034DH         LINE#         40
  C:0350H         LINE#         41
  C:0353H         LINE#         42
  C:0356H         LINE#         45
  C:0359H         LINE#         46
  C:035CH         LINE#         47
  C:035FH         LINE#         48
  C:0362H         LINE#         49
  C:0365H         LINE#         50
  C:0368H         LINE#         51
  C:036BH         LINE#         54
  C:036EH         LINE#         55
  C:0371H         LINE#         58
  C:0374H         LINE#         59
  C:0377H         LINE#         60
  C:037AH         LINE#         61
  C:037DH         LINE#         62
  C:037EH         LINE#         67
  C:0380H         LINE#         68
  C:0383H         LINE#         70
  C:0385H         LINE#         71
  C:0388H         LINE#         73
  C:038AH         LINE#         74
  C:038DH         LINE#         75
  C:038FH         LINE#         78
  C:0391H         LINE#         79
BL51 BANKED LINKER/LOCATER V6.22.4.0                                                  01/10/2026  10:26:27  PAGE 68


  C:0394H         LINE#         80
  C:0397H         LINE#         81
  C:039AH         LINE#         82
  C:039DH         LINE#         83
  C:039FH         LINE#         86
  C:03A2H         LINE#         87
  C:03A4H         LINE#         90
  C:03A6H         LINE#         91
  C:03A8H         LINE#         92
  C:03AAH         LINE#         96
  C:03ACH         LINE#         97
  C:03AFH         LINE#         99
  C:03B1H         LINE#         100
  C:03B4H         LINE#         101
  C:03B7H         LINE#         102
  C:03B8H         LINE#         105
  C:03BBH         LINE#         106
  C:03BEH         LINE#         107
  C:03BFH         LINE#         110
  C:03C2H         LINE#         111
  C:03C5H         LINE#         112
  C:03C6H         LINE#         114
  C:03C9H         LINE#         115
  C:03CCH         LINE#         116
  C:03CDH         LINE#         118
  C:03D0H         LINE#         119
  C:03D3H         LINE#         120
  C:03D4H         LINE#         122
  C:03D7H         LINE#         123
  C:03DAH         LINE#         124
  C:03DBH         LINE#         126
  C:03DCH         LINE#         134
  C:03DEH         LINE#         135
  C:03E1H         LINE#         138
  C:03E4H         LINE#         142
  C:03E6H         LINE#         143
  C:03E8H         LINE#         144
  C:03EAH         LINE#         145
  C:03ECH         LINE#         146
  C:03EFH         LINE#         148
  C:03F1H         LINE#         152
  C:03F3H         LINE#         153
  C:03F6H         LINE#         154
  C:03F8H         LINE#         156
  C:03FBH         LINE#         157
  C:03FDH         LINE#         161
  C:0400H         LINE#         162
  C:0403H         LINE#         163
  C:0406H         LINE#         164
  C:0409H         LINE#         166
  C:040CH         LINE#         167
  C:040FH         LINE#         168
  C:0410H         LINE#         172
  C:0413H         LINE#         173
  C:0415H         LINE#         176
  C:0416H         LINE#         179
  C:0419H         LINE#         182
BL51 BANKED LINKER/LOCATER V6.22.4.0                                                  01/10/2026  10:26:27  PAGE 69


  C:041CH         LINE#         183
  C:041EH         LINE#         187
  C:0420H         LINE#         188
  C:0422H         LINE#         189
  C:0425H         LINE#         190
  C:0426H         LINE#         194
  C:0428H         LINE#         199
  C:042AH         LINE#         200
  C:042DH         LINE#         201
  C:042EH         LINE#         202
  C:0431H         LINE#         204
  C:0433H         LINE#         206
  C:0435H         LINE#         207
  C:0437H         LINE#         210
  C:0439H         LINE#         213
  C:043AH         LINE#         214
  C:043DH         LINE#         216
  C:0440H         LINE#         217
  C:0441H         LINE#         220
  C:0443H         LINE#         223
  C:0445H         LINE#         224
  C:0447H         LINE#         225
  C:044AH         LINE#         226
  C:044DH         LINE#         227
  C:044EH         LINE#         230
  C:0450H         LINE#         234
  C:0452H         LINE#         235
  C:0455H         LINE#         236
  C:0456H         LINE#         237
  C:0457H         LINE#         240
  C:0459H         LINE#         241
  C:045CH         LINE#         242
  C:045EH         LINE#         245
  C:045FH         LINE#         246
  C:0460H         LINE#         247
  C:0461H         LINE#         248
  C:0463H         LINE#         249
  C:0465H         LINE#         251
  C:0468H         LINE#         252
  C:046AH         LINE#         253
  C:046CH         LINE#         254
  C:046EH         LINE#         256
  C:0471H         LINE#         257
  C:0473H         LINE#         259
  C:0474H         LINE#         260
  C:0475H         LINE#         261
  C:0476H         LINE#         262
  C:0478H         LINE#         265
  C:047BH         LINE#         266
  C:047EH         LINE#         269
  C:0481H         LINE#         270
  C:0484H         LINE#         271
  C:0487H         LINE#         273
  C:0489H         LINE#         274
  C:048CH         LINE#         276
  C:048FH         LINE#         277
  C:0492H         LINE#         279
BL51 BANKED LINKER/LOCATER V6.22.4.0                                                  01/10/2026  10:26:27  PAGE 70


  C:0493H         LINE#         283
  C:0495H         LINE#         284
  C:0498H         LINE#         287
  C:049BH         LINE#         290
  C:049DH         LINE#         291
  C:04A0H         LINE#         292
  C:04A2H         LINE#         296
  C:04A4H         LINE#         297
  C:04A7H         LINE#         300
  C:04AAH         LINE#         301
  C:04ADH         LINE#         302
  C:04B0H         LINE#         303
  C:04B3H         LINE#         304
  C:04B4H         LINE#         308
  C:04B7H         LINE#         309
  C:04B8H         LINE#         312
  C:04BAH         LINE#         313
  C:04BCH         LINE#         314
  C:04BDH         LINE#         318
  C:04BFH         LINE#         319
  C:04C2H         LINE#         320
  C:04C4H         LINE#         322
  C:04C5H         LINE#         324
  C:04C7H         LINE#         325
  C:04CAH         LINE#         328
  C:04CCH         LINE#         329
  C:04CEH         LINE#         330
  C:04D0H         LINE#         331
  C:04D2H         LINE#         332
  C:04D5H         LINE#         334
  C:04D8H         LINE#         335
  C:04DBH         LINE#         336
  C:04DEH         LINE#         337
  C:04E1H         LINE#         338
  C:04E4H         LINE#         339
  C:04E5H         LINE#         343
  C:04E8H         LINE#         344
  C:04EAH         LINE#         347
  C:04ECH         LINE#         348
  C:04EDH         LINE#         349
  C:04EFH         LINE#         350
  C:04F1H         LINE#         352
  C:04F4H         LINE#         353
  C:04F7H         LINE#         354
  C:04F9H         LINE#         357
  C:04FCH         LINE#         358
  C:04FFH         LINE#         360
  C:0502H         LINE#         361
  C:0505H         LINE#         362
  C:0507H         LINE#         363
  C:050AH         LINE#         364
  C:050DH         LINE#         365
  C:0510H         LINE#         366
  C:0511H         LINE#         368
  C:0514H         LINE#         369
  C:0516H         LINE#         370
  C:0517H         LINE#         371
BL51 BANKED LINKER/LOCATER V6.22.4.0                                                  01/10/2026  10:26:27  PAGE 71


  C:0518H         LINE#         372
  C:051AH         LINE#         373
  C:051BH         LINE#         376
  C:051DH         LINE#         377
  C:0520H         LINE#         378
  C:0522H         LINE#         382
  C:0524H         LINE#         383
  C:0526H         LINE#         387
  C:0528H         LINE#         388
  C:052BH         LINE#         391
  C:052DH         LINE#         392
  C:052FH         LINE#         395
  C:0531H         LINE#         396
  C:0534H         LINE#         399
  C:0537H         LINE#         400
  C:053AH         LINE#         401
  C:053DH         LINE#         403
  C:053EH         LINE#         407
  C:0540H         LINE#         408
  C:0543H         LINE#         409
  C:0545H         LINE#         411
  C:0546H         LINE#         413
  C:0548H         LINE#         414
  C:054BH         LINE#         417
  C:054DH         LINE#         418
  C:054FH         LINE#         419
  C:0551H         LINE#         420
  C:0553H         LINE#         421
  C:0556H         LINE#         423
  C:0558H         LINE#         425
  C:055BH         LINE#         428
  C:055EH         LINE#         429
  C:0561H         LINE#         430
  C:0564H         LINE#         431
  C:0567H         LINE#         432
  C:056AH         LINE#         433
  C:056DH         LINE#         434
  C:056EH         LINE#         437
  C:0571H         LINE#         438
  C:0573H         LINE#         441
  C:0575H         LINE#         442
  C:0576H         LINE#         443
  C:0578H         LINE#         444
  C:057AH         LINE#         446
  C:057DH         LINE#         447
  C:0580H         LINE#         448
  C:0582H         LINE#         450
  C:0585H         LINE#         451
  C:0588H         LINE#         453
  C:058BH         LINE#         454
  C:058EH         LINE#         455
  C:0591H         LINE#         456
  C:0594H         LINE#         457
  C:0595H         LINE#         459
  C:0597H         LINE#         460
  C:0599H         LINE#         464
  C:059CH         LINE#         465
BL51 BANKED LINKER/LOCATER V6.22.4.0                                                  01/10/2026  10:26:27  PAGE 72


  C:059FH         LINE#         466
  C:05A2H         LINE#         468
  C:05A3H         LINE#         472
  C:05A6H         LINE#         475
  C:05A8H         LINE#         476
  C:05ABH         LINE#         477
  C:05AEH         LINE#         478
  C:05B1H         LINE#         481
  C:05B3H         LINE#         482
  C:05B6H         LINE#         483
  C:05B9H         LINE#         484
  C:05BCH         LINE#         485
  C:05BEH         LINE#         486
  C:05C1H         LINE#         489
  C:05C4H         LINE#         490
  C:05C7H         LINE#         491
  C:05CAH         LINE#         492
  C:05CDH         LINE#         493
  C:05CFH         LINE#         494
  C:05D2H         LINE#         495
  C:05D5H         LINE#         496
  C:05D8H         LINE#         497
  C:05D9H         LINE#         499
  C:05DCH         LINE#         500
  C:05DEH         LINE#         501
  C:05DFH         LINE#         502
  C:05E0H         LINE#         503
  C:05E2H         LINE#         504
  C:05E3H         LINE#         521
  C:05E4H         LINE#         522
  C:05E5H         LINE#         523
  C:05E7H         LINE#         524
  C:05E9H         LINE#         527
  C:05EAH         LINE#         528
  C:05ECH         LINE#         530
  C:05EDH         LINE#         531
  C:05EFH         LINE#         534
  C:05F0H         LINE#         535
  C:05F1H         LINE#         536
  C:05F2H         LINE#         539
  C:05F4H         LINE#         540
  C:05F5H         LINE#         541
  C:05F6H         LINE#         544
  C:05F8H         LINE#         545
  C:05F9H         LINE#         546
  C:05FAH         LINE#         549
  C:05FBH         LINE#         550
  C:05FCH         LINE#         554
  C:05FDH         LINE#         555
  C:0600H         LINE#         557
  C:0602H         LINE#         558
  C:0605H         LINE#         559
  C:0606H         LINE#         560
  C:0608H         LINE#         561
  C:060BH         LINE#         562
  C:060CH         LINE#         564
  C:060EH         LINE#         565
BL51 BANKED LINKER/LOCATER V6.22.4.0                                                  01/10/2026  10:26:27  PAGE 73


  C:0611H         LINE#         566
  C:0612H         LINE#         567
  C:0613H         LINE#         568
  C:0614H         LINE#         569
  C:0616H         LINE#         570
  C:0619H         LINE#         571
  C:061AH         LINE#         576
  C:061CH         LINE#         577
  C:061FH         LINE#         579
  C:0622H         LINE#         580
  C:0625H         LINE#         582
  C:0628H         LINE#         584
  C:062AH         LINE#         585
  C:062DH         LINE#         587
  C:062EH         LINE#         588
  C:0630H         LINE#         589
  C:0631H         LINE#         590
  C:0633H         LINE#         592
  C:0636H         LINE#         593
  C:0639H         LINE#         594
  C:063AH         LINE#         596
  C:063DH         LINE#         597
  C:0640H         LINE#         598
  C:0641H         LINE#         600
  C:0644H         LINE#         601
  C:0647H         LINE#         602
  C:0648H         LINE#         605
  C:064AH         LINE#         606
  C:064CH         LINE#         607
  C:064DH         LINE#         611
  C:064FH         LINE#         612
  C:0652H         LINE#         613
  C:0655H         LINE#         614
  C:0658H         LINE#         615
  C:065BH         LINE#         616
  C:065CH         LINE#         619
  C:065EH         LINE#         620
  C:065FH         LINE#         623
  C:0662H         LINE#         626
  C:0664H         LINE#         627
  C:0666H         LINE#         628
  C:0668H         LINE#         631
  C:066AH         LINE#         632
  C:066CH         LINE#         635
  C:066EH         LINE#         636
  C:0670H         LINE#         637
  C:0673H         LINE#         638
  C:0675H         LINE#         641
  C:0677H         LINE#         642
  C:067AH         LINE#         643
  C:067DH         LINE#         644
  C:0680H         LINE#         645
  C:0682H         LINE#         648
  C:0684H         LINE#         649
  C:0686H         LINE#         653
  C:0689H         LINE#         654
  C:068BH         LINE#         656
BL51 BANKED LINKER/LOCATER V6.22.4.0                                                  01/10/2026  10:26:27  PAGE 74


  C:068EH         LINE#         657
  C:0690H         LINE#         661
  C:0693H         LINE#         662
  C:0695H         LINE#         664
  C:0698H         LINE#         665
  C:069AH         LINE#         670
  C:069DH         LINE#         671
  C:069FH         LINE#         673
  C:06A1H         LINE#         675
  C:06A3H         LINE#         676
  C:06A6H         LINE#         677
  C:06A8H         LINE#         681
  C:06ABH         LINE#         683
  C:06ADH         LINE#         684
  C:06B0H         LINE#         685
  C:06B2H         LINE#         686
  C:06B4H         LINE#         688
  C:06B7H         LINE#         690
  C:06B9H         LINE#         691
  C:06BCH         LINE#         692
  C:06BEH         LINE#         695
  C:06C0H         LINE#         696
  C:06C3H         LINE#         697
  C:06C5H         LINE#         701
  C:06C8H         LINE#         702
  C:06CAH         LINE#         704
  C:06CDH         LINE#         705
  C:06CFH         LINE#         708
  C:06D2H         LINE#         710
  C:06D3H         LINE#         721
  C:06D4H         LINE#         722
  C:06D7H         LINE#         724
  C:06D8H         LINE#         725
  C:06D9H         LINE#         726
  C:06DAH         LINE#         730
  C:06DCH         LINE#         731
  C:06DDH         LINE#         732
  C:06DEH         LINE#         736
  C:06DFH         LINE#         737
  C:06E2H         LINE#         738
  C:06E4H         LINE#         739
  C:06E5H         LINE#         741
  C:06E8H         LINE#         742
  C:06EAH         LINE#         743
  C:06EBH         LINE#         746
  C:06ECH         LINE#         747
  C:06EDH         LINE#         748
  C:06EEH         LINE#         752
  C:06F1H         LINE#         754
  C:06F2H         LINE#         755
  C:06F3H         LINE#         756
  C:06F5H         LINE#         757
  C:06F7H         LINE#         759
  C:06FAH         LINE#         760
  C:06FCH         LINE#         761
  C:06FDH         LINE#         762
  C:06FFH         LINE#         763
BL51 BANKED LINKER/LOCATER V6.22.4.0                                                  01/10/2026  10:26:27  PAGE 75


  C:0700H         LINE#         766
  C:0701H         LINE#         767
  C:0702H         LINE#         768
  C:0704H         LINE#         769
  C:0705H         LINE#         770
  C:0708H         LINE#         771
  C:070AH         LINE#         772
  C:070BH         LINE#         773
  C:070DH         LINE#         774
  C:070EH         LINE#         778
  C:0711H         LINE#         779
  C:0712H         LINE#         780
  C:0713H         LINE#         781
  C:0715H         LINE#         782
  C:0717H         LINE#         783
  C:071AH         LINE#         784
  C:071CH         LINE#         785
  C:071DH         LINE#         786
  C:071FH         LINE#         787
  C:0720H         LINE#         789
  C:0721H         LINE#         790
  C:0722H         LINE#         791
  C:0724H         LINE#         792
  C:0725H         LINE#         793
  C:0728H         LINE#         794
  C:072AH         LINE#         795
  C:072BH         LINE#         796
  C:072DH         LINE#         797
  C:072EH         LINE#         801
  C:0731H         LINE#         802
  C:0732H         LINE#         803
  C:0733H         LINE#         804
  C:0735H         LINE#         805
  C:0737H         LINE#         806
  C:073AH         LINE#         807
  C:073CH         LINE#         808
  C:073DH         LINE#         809
  C:073FH         LINE#         810
  C:0740H         LINE#         812
  C:0741H         LINE#         813
  C:0742H         LINE#         814
  C:0744H         LINE#         815
  C:0745H         LINE#         816
  C:0748H         LINE#         817
  C:074AH         LINE#         818
  C:074BH         LINE#         819
  C:074DH         LINE#         820
  C:074EH         LINE#         824
  C:074FH         LINE#         825
  C:0752H         LINE#         826
  C:0753H         LINE#         827
  C:0754H         LINE#         828
  C:075DH         LINE#         835
  C:0760H         LINE#         836
  C:0761H         LINE#         837
  C:0762H         LINE#         838
  C:0764H         LINE#         839
BL51 BANKED LINKER/LOCATER V6.22.4.0                                                  01/10/2026  10:26:27  PAGE 76


  C:0766H         LINE#         841
  C:0769H         LINE#         842
  C:076AH         LINE#         843
  C:076BH         LINE#         844
  C:076CH         LINE#         845
  C:076EH         LINE#         846
  C:076FH         LINE#         847
  C:0771H         LINE#         848
  C:0773H         LINE#         849
  C:0774H         LINE#         850
  C:0776H         LINE#         851
  C:0778H         LINE#         852
  C:0779H         LINE#         853
  C:077BH         LINE#         854
  C:077CH         LINE#         856
  C:077DH         LINE#         857
  C:077EH         LINE#         858
  C:0780H         LINE#         859
  C:0781H         LINE#         860
  C:0784H         LINE#         861
  C:0785H         LINE#         862
  C:0786H         LINE#         863
  C:0787H         LINE#         864
  C:0789H         LINE#         865
  C:078AH         LINE#         866
  C:078CH         LINE#         867
  C:078EH         LINE#         868
  C:078FH         LINE#         869
  C:0791H         LINE#         870
  C:0793H         LINE#         871
  C:0794H         LINE#         872
  C:0796H         LINE#         873
  C:0797H         LINE#         878
  C:079AH         LINE#         879
  C:079BH         LINE#         880
  C:079CH         LINE#         881
  C:079EH         LINE#         882
  C:07A0H         LINE#         885
  C:07A3H         LINE#         887
  C:07A5H         LINE#         888
  C:07A6H         LINE#         889
  C:07A8H         LINE#         892
  C:07AAH         LINE#         893
  C:07ADH         LINE#         894
  C:07AFH         LINE#         897
  C:07B1H         LINE#         898
  C:07B2H         LINE#         899
  C:07B4H         LINE#         902
  C:07B6H         LINE#         903
  C:07B9H         LINE#         908
  C:07BBH         LINE#         909
  C:07BCH         LINE#         910
  C:07BEH         LINE#         911
  C:07C0H         LINE#         915
  C:07C1H         LINE#         916
  C:07C2H         LINE#         917
  C:07C4H         LINE#         918
BL51 BANKED LINKER/LOCATER V6.22.4.0                                                  01/10/2026  10:26:27  PAGE 77


  C:07C5H         LINE#         919
  C:07C8H         LINE#         922
  C:07CAH         LINE#         923
  C:07CBH         LINE#         924
  C:07CDH         LINE#         927
  C:07CFH         LINE#         928
  C:07D2H         LINE#         929
  C:07D4H         LINE#         932
  C:07D6H         LINE#         933
  C:07D7H         LINE#         934
  C:07D9H         LINE#         936
  C:07DBH         LINE#         937
  C:07DEH         LINE#         940
  C:07E0H         LINE#         941
  C:07E1H         LINE#         942
  C:07E3H         LINE#         943
  C:07E5H         LINE#         946
  C:07E6H         LINE#         947
  C:07E7H         LINE#         949
  C:07E8H         LINE#         950
  C:07E9H         LINE#         958
  C:07EBH         LINE#         959
  C:07EDH         LINE#         960
  C:07EFH         LINE#         961
  C:07F1H         LINE#         962
  C:07F3H         LINE#         963
  C:07F5H         LINE#         964
  C:07F7H         LINE#         965
  C:07F8H         LINE#         966
  C:07F9H         LINE#         970
  C:07FBH         LINE#         971
  C:07FEH         LINE#         972
  C:07FFH         LINE#         973
  C:0800H         LINE#         976
  C:0802H         LINE#         979
  C:0804H         LINE#         980
  C:0806H         LINE#         981
  C:0809H         LINE#         982
  C:080BH         LINE#         985
  C:080EH         LINE#         989
  C:080FH         LINE#         990
  C:0811H         LINE#         991
  C:0812H         LINE#         995
  C:0813H         LINE#         996
  C:0814H         LINE#         999
  C:0817H         LINE#         1000
  C:0818H         LINE#         1001
  C:081BH         LINE#         1002
  C:081DH         LINE#         1004
  C:0820H         LINE#         1005
  C:0822H         LINE#         1007
  C:0823H         LINE#         1008
  C:0824H         LINE#         1009
  C:0827H         LINE#         1012
  C:0829H         LINE#         1014
  C:082AH         LINE#         1015
  C:082BH         LINE#         1016
BL51 BANKED LINKER/LOCATER V6.22.4.0                                                  01/10/2026  10:26:27  PAGE 78


  C:082CH         LINE#         1017
  C:082EH         LINE#         1018
  C:0830H         LINE#         1020
  C:0833H         LINE#         1021
  C:0836H         LINE#         1022
  C:0838H         LINE#         1024
  C:0839H         LINE#         1025
  C:083BH         LINE#         1030
  C:083CH         LINE#         1031
  C:083EH         LINE#         1032
  C:0840H         LINE#         1035
  C:0843H         LINE#         1040
  C:0844H         LINE#         1041
  C:0846H         LINE#         1042
  C:0847H         LINE#         1045
  C:0848H         LINE#         1046
  C:0849H         LINE#         1048
  C:084AH         LINE#         1049
  C:084CH         LINE#         1050
  C:084DH         LINE#         1051
  C:0850H         LINE#         1052
  C:0853H         LINE#         1053
  C:0855H         LINE#         1054
  C:0857H         LINE#         1057
  C:0859H         LINE#         1059
  C:085AH         LINE#         1060
  C:085BH         LINE#         1061
  C:085CH         LINE#         1062
  C:085EH         LINE#         1063
  C:0860H         LINE#         1065
  C:0863H         LINE#         1066
  C:0866H         LINE#         1067
  C:0868H         LINE#         1069
  C:0869H         LINE#         1070
  C:086BH         LINE#         1074
  C:086CH         LINE#         1075
  C:086EH         LINE#         1076
  C:0870H         LINE#         1079
  C:0873H         LINE#         1080
  C:0875H         LINE#         1083
  C:0878H         LINE#         1084
  C:0879H         LINE#         1085
  C:087AH         LINE#         1089
  C:087BH         LINE#         1090
  C:087CH         LINE#         1095
  C:087EH         LINE#         1096
  C:0881H         LINE#         1097
  C:0882H         LINE#         1098
  C:0883H         LINE#         1099
  C:0885H         LINE#         1100
  C:0887H         LINE#         1101
  C:088AH         LINE#         1103
  C:088CH         LINE#         1104
  C:088DH         LINE#         1105
  C:088FH         LINE#         1107
  C:0891H         LINE#         1108
  C:0892H         LINE#         1109
BL51 BANKED LINKER/LOCATER V6.22.4.0                                                  01/10/2026  10:26:27  PAGE 79


  C:0894H         LINE#         1110
  C:0896H         LINE#         1112
  C:0897H         LINE#         1113
  C:0898H         LINE#         1114
  C:089AH         LINE#         1115
  C:089BH         LINE#         1116
  C:089EH         LINE#         1117
  C:08A0H         LINE#         1118
  C:08A1H         LINE#         1119
  C:08A3H         LINE#         1120
  C:08A5H         LINE#         1121
  C:08A6H         LINE#         1122
  C:08A8H         LINE#         1125
  C:08AAH         LINE#         1126
  C:08ABH         LINE#         1127
  C:08ACH         LINE#         1129
  C:08AEH         LINE#         1130
  C:08AFH         LINE#         1131
  C:08B0H         LINE#         1136
  C:08B2H         LINE#         1137
  C:08B5H         LINE#         1138
  C:08B6H         LINE#         1139
  C:08B7H         LINE#         1140
  C:08B9H         LINE#         1141
  C:08BBH         LINE#         1142
  C:08BEH         LINE#         1144
  C:08C0H         LINE#         1145
  C:08C1H         LINE#         1146
  C:08C3H         LINE#         1148
  C:08C5H         LINE#         1149
  C:08C6H         LINE#         1150
  C:08C8H         LINE#         1151
  C:08CAH         LINE#         1153
  C:08CBH         LINE#         1154
  C:08CCH         LINE#         1155
  C:08CEH         LINE#         1156
  C:08CFH         LINE#         1157
  C:08D2H         LINE#         1158
  C:08D4H         LINE#         1159
  C:08D5H         LINE#         1160
  C:08D7H         LINE#         1161
  C:08D9H         LINE#         1162
  C:08DAH         LINE#         1163
  C:08DCH         LINE#         1166
  C:08DEH         LINE#         1167
  C:08DFH         LINE#         1168
  C:08E0H         LINE#         1170
  C:08E2H         LINE#         1171
  C:08E3H         LINE#         1172
  C:08E4H         LINE#         1180
  C:08E6H         LINE#         1181
  C:08E9H         LINE#         1182
  C:08EAH         LINE#         1183
  C:08EBH         LINE#         1184
  C:08EDH         LINE#         1185
  C:08EFH         LINE#         1187
  C:08F2H         LINE#         1188
BL51 BANKED LINKER/LOCATER V6.22.4.0                                                  01/10/2026  10:26:27  PAGE 80


  C:08F4H         LINE#         1189
  C:08F5H         LINE#         1190
  C:08F7H         LINE#         1191
  C:08F9H         LINE#         1192
  C:08FAH         LINE#         1193
  C:08FCH         LINE#         1194
  C:08FEH         LINE#         1197
  C:08FFH         LINE#         1198
  C:0902H         LINE#         1199
  C:0904H         LINE#         1200
  C:0905H         LINE#         1201
  C:0907H         LINE#         1202
  C:0909H         LINE#         1203
  C:090AH         LINE#         1204
  C:090CH         LINE#         1206
  C:090EH         LINE#         1207
  C:090FH         LINE#         1208
  C:0910H         LINE#         1210
  C:0912H         LINE#         1211
  C:0913H         LINE#         1212
  C:0914H         LINE#         1216
  C:0916H         LINE#         1217
  C:0919H         LINE#         1218
  C:091AH         LINE#         1219
  C:091BH         LINE#         1220
  C:091DH         LINE#         1221
  C:091FH         LINE#         1223
  C:0922H         LINE#         1224
  C:0924H         LINE#         1225
  C:0925H         LINE#         1226
  C:0927H         LINE#         1227
  C:0929H         LINE#         1228
  C:092AH         LINE#         1229
  C:092CH         LINE#         1230
  C:092EH         LINE#         1233
  C:092FH         LINE#         1234
  C:0932H         LINE#         1235
  C:0934H         LINE#         1236
  C:0935H         LINE#         1237
  C:0937H         LINE#         1238
  C:0939H         LINE#         1239
  C:093AH         LINE#         1240
  C:093CH         LINE#         1242
  C:093EH         LINE#         1243
  C:093FH         LINE#         1244
  C:0940H         LINE#         1246
  C:0942H         LINE#         1247
  C:0943H         LINE#         1248
  C:0944H         LINE#         1254
  C:0946H         LINE#         1255
  C:0949H         LINE#         1256
  C:094AH         LINE#         1257
  C:094BH         LINE#         1258
  C:094DH         LINE#         1259
  C:094FH         LINE#         1261
  C:0952H         LINE#         1262
  C:0954H         LINE#         1263
BL51 BANKED LINKER/LOCATER V6.22.4.0                                                  01/10/2026  10:26:27  PAGE 81


  C:0955H         LINE#         1264
  C:0957H         LINE#         1265
  C:0959H         LINE#         1268
  C:095AH         LINE#         1269
  C:095DH         LINE#         1270
  C:095FH         LINE#         1271
  C:0960H         LINE#         1272
  C:0962H         LINE#         1274
  C:0964H         LINE#         1275
  C:0965H         LINE#         1276
  C:0966H         LINE#         1278
  C:0968H         LINE#         1279
  C:0969H         LINE#         1280
  C:096AH         LINE#         1284
  C:096CH         LINE#         1285
  C:096FH         LINE#         1286
  C:0970H         LINE#         1287
  C:0971H         LINE#         1288
  C:0973H         LINE#         1289
  C:0975H         LINE#         1291
  C:0978H         LINE#         1292
  C:097AH         LINE#         1293
  C:097BH         LINE#         1294
  C:097DH         LINE#         1295
  C:097FH         LINE#         1298
  C:0980H         LINE#         1299
  C:0983H         LINE#         1300
  C:0985H         LINE#         1301
  C:0986H         LINE#         1302
  C:0988H         LINE#         1304
  C:098AH         LINE#         1305
  C:098BH         LINE#         1306
  C:098CH         LINE#         1308
  C:098EH         LINE#         1309
  C:098FH         LINE#         1310
  C:0990H         LINE#         1318
  C:0992H         LINE#         1319
  C:0995H         LINE#         1320
  C:0998H         LINE#         1321
  C:099BH         LINE#         1322
  C:099CH         LINE#         1324
  C:099FH         LINE#         1325
  C:09A1H         LINE#         1326
  C:09A2H         LINE#         1327
  C:09A3H         LINE#         1328
  C:09A5H         LINE#         1329
  C:09A6H         LINE#         1333
  C:09A8H         LINE#         1334
  C:09ABH         LINE#         1335
  C:09AEH         LINE#         1336
  C:09B1H         LINE#         1337
  C:09B2H         LINE#         1339
  C:09B5H         LINE#         1340
  C:09B7H         LINE#         1341
  C:09B8H         LINE#         1342
  C:09B9H         LINE#         1343
  C:09BBH         LINE#         1344
BL51 BANKED LINKER/LOCATER V6.22.4.0                                                  01/10/2026  10:26:27  PAGE 82


  -------         ENDMOD        RUNNINGTASK

Program Size: data=8.0 xdata=0 code=5300
LINK/LOCATE RUN COMPLETE.  0 WARNING(S),  0 ERROR(S)
